Microchip Technology Inc, v2.10 (B)

Tool Name:
  c:\program files\microchip\xc16\v2.10\bin\bin\..\bin/elf-ld.exe

Command:
  -TC:\\Users\\franc\\AppData\\Local\\Temp\\tmp000021d4.00 \
  -TC:\\Users\\franc\\AppData\\Local\\Temp\\tmp000021d4.01 \
  -TC:\\Users\\franc\\AppData\\Local\\Temp\\tmp000021d4.02 \
  -TC:\\Users\\franc\\AppData\\Local\\Temp\\tmp000021d4.03 \
  -TC:\\Users\\franc\\AppData\\Local\\Temp\\tmp000021d4.04 \
  -p33FJ256MC710 \
  --mdfp=C:/Users/franc/.mchp_packs/Microchip/dsPIC33F-GP-MC_DFP/1.3.64/xc16 \
  -o \
  dist/default/debug/inicio_v2_.X.debug.elf \
  -Lc:/program files/microchip/xc16/v2.10/bin/bin/.. \
  -LC:/Users/franc/.mchp_packs/Microchip/dsPIC33F-GP-MC_DFP/1.3.64/xc16/bin/../support/PIC24H/gld \
  -LC:/Users/franc/.mchp_packs/Microchip/dsPIC33F-GP-MC_DFP/1.3.64/xc16/bin/../support/dsPIC33F/gld \
  -Lc:/program files/microchip/xc16/v2.10/bin/bin/../../lib \
  -Lc:/program files/microchip/xc16/v2.10/bin/bin/../../lib/PIC24E \
  -Lc:/program files/microchip/xc16/v2.10/bin/bin/../../support/PIC24E/gld \
  -Lc:/program files/microchip/xc16/v2.10/bin/bin/../../lib/PIC24F \
  -Lc:/program files/microchip/xc16/v2.10/bin/bin/../../support/PIC24F/gld \
  -Lc:/program files/microchip/xc16/v2.10/bin/bin/../../lib/PIC24H \
  -Lc:/program files/microchip/xc16/v2.10/bin/bin/../../support/PIC24H/gld \
  -Lc:/program files/microchip/xc16/v2.10/bin/bin/../../lib/dsPIC30F \
  -Lc:/program files/microchip/xc16/v2.10/bin/bin/../../support/dsPIC30F/gld \
  -Lc:/program files/microchip/xc16/v2.10/bin/bin/../../support/dsPIC33C/gld \
  -Lc:/program files/microchip/xc16/v2.10/bin/bin/../../lib/dsPIC33E \
  -Lc:/program files/microchip/xc16/v2.10/bin/bin/../../support/dsPIC33E/gld \
  -Lc:/program files/microchip/xc16/v2.10/bin/bin/../../lib/dsPIC33F \
  -Lc:/program files/microchip/xc16/v2.10/bin/bin/../../support/dsPIC33F/gld \
  build/default/debug/configuraciones.o \
  build/default/debug/main.o \
  build/default/debug/Memoria.o \
  build/default/debug/rutinas_genericas.o \
  build/default/debug/timer.o \
  build/default/debug/i2cEmem.o \
  build/default/debug/ctrl_param.o \
  build/default/debug/recepcion_serie.o \
  build/default/debug/parametrizacion.o \
  build/default/debug/pulso_watch.o \
  build/default/debug/APQ.o \
  build/default/debug/automatico.o \
  build/default/debug/manual.o \
  build/default/debug/quemador.o \
  build/default/debug/molino.o \
  build/default/debug/precalentador.o \
  build/default/debug/generar_palabra_A.o \
  build/default/debug/sonidosAlarma.o \
  build/default/debug/tiempo_Quemador.o \
  --defsym=__MPLAB_BUILD=1 \
  --defsym=__MPLAB_DEBUG=1 \
  --defsym=__DEBUG=1 \
  --defsym=__MPLAB_DEBUGGER_ICD3=1 \
  -Tp33FJ256MC710.gld.05 \
  --stack=16 \
  --check-sections \
  --data-init \
  --pack-data \
  --handles \
  --isr \
  --no-gc-sections \
  --fill-upper=0 \
  --stackguard=16 \
  --no-force-link \
  --smart-io \
  -Map=dist/default/debug/inicio(v2).X.debug.map \
  --report-mem \
  --memorysummary \
  dist/default/debug/memoryfile.xml \
  -start-group \
  --library=c99-pic30-elf \
  --library=m-elf \
  --library=c99-elf \
  -end-group \

Archive member included because of file (symbol)

c:/program files/microchip/xc16/v2.10/bin/bin/../../lib/dsPIC33F\libp33FJ256MC710-elf.a(DataRdyUART1.o)
                              build/default/debug/recepcion_serie.o (_DataRdyUART1)
c:/program files/microchip/xc16/v2.10/bin/bin/../../lib/dsPIC33F\libp33FJ256MC710-elf.a(ReadUART1.o)
                              build/default/debug/recepcion_serie.o (_ReadUART1)
c:/program files/microchip/xc16/v2.10/bin/bin/../../lib\libc99-pic30-elf.a(crt0_standard.o)
                              (__resetPRI)
c:/program files/microchip/xc16/v2.10/bin/bin/../../lib\libc99-pic30-elf.a(data_init_standard.o)
                              c:/program files/microchip/xc16/v2.10/bin/bin/../../lib\libc99-pic30-elf.a(crt0_standard.o) (__data_init_standard)
c:/program files/microchip/xc16/v2.10/bin/bin/../../lib\libc99-pic30-elf.a(crt_start_mode_normal.Meo)
                              (__crt_start_mode_normal)
c:/program files/microchip/xc16/v2.10/bin/bin/../../lib\libc99-pic30-elf.a(delay32.Meo)
                              build/default/debug/main.o (___delay32)
c:/program files/microchip/xc16/v2.10/bin/bin/../../lib\libc99-pic30-elf.a(feqltle.XX_o)
                              build/default/debug/main.o (___ltsf2)
c:/program files/microchip/xc16/v2.10/bin/bin/../../lib\libc99-pic30-elf.a(fgtge.XX_o)
                              build/default/debug/APQ.o (___gtsf2)
c:/program files/microchip/xc16/v2.10/bin/bin/../../lib\libc99-pic30-elf.a(fixsfsi.XX_o)
                              build/default/debug/APQ.o (_(float, int, long long, short, float, short, int))
c:/program files/microchip/xc16/v2.10/bin/bin/../../lib\libc99-pic30-elf.a(fixunssfsi.XX_o)
                              build/default/debug/main.o (___fixunssfsi)
c:/program files/microchip/xc16/v2.10/bin/bin/../../lib\libc99-pic30-elf.a(floatsisf.XX_o)
                              build/default/debug/APQ.o (___floatsisf)
c:/program files/microchip/xc16/v2.10/bin/bin/../../lib\libc99-pic30-elf.a(floatunsisf.XX_o)
                              build/default/debug/main.o (___floatunsisf)
c:/program files/microchip/xc16/v2.10/bin/bin/../../lib\libc99-pic30-elf.a(funpack.XX_o)
                              c:/program files/microchip/xc16/v2.10/bin/bin/../../lib\libc99-pic30-elf.a(fixsfsi.XX_o) (__funpack)
c:/program files/microchip/xc16/v2.10/bin/bin/../../lib\libc99-pic30-elf.a(addsf3x.XX_o)
                              build/default/debug/main.o (___subsf3)
c:/program files/microchip/xc16/v2.10/bin/bin/../../lib\libc99-pic30-elf.a(divsf3x.XX_o)
                              build/default/debug/main.o (___divsf3)
c:/program files/microchip/xc16/v2.10/bin/bin/../../lib\libc99-pic30-elf.a(mulsf3x.XX_o)
                              build/default/debug/main.o (___mulsf3)
c:/program files/microchip/xc16/v2.10/bin/bin/../../lib\libc99-pic30-elf.a(dnrmpackfx.XX_o)
                              c:/program files/microchip/xc16/v2.10/bin/bin/../../lib\libc99-pic30-elf.a(addsf3x.XX_o) (__dnrmpackf)
c:/program files/microchip/xc16/v2.10/bin/bin/../../lib\libc99-pic30-elf.a(unpackdnrmfx.XX_o)
                              c:/program files/microchip/xc16/v2.10/bin/bin/../../lib\libc99-pic30-elf.a(mulsf3x.XX_o) (__unpackdnrmf)
c:/program files/microchip/xc16/v2.10/bin/bin/../../lib\libc99-pic30-elf.a(typefx.XX_o)
                              c:/program files/microchip/xc16/v2.10/bin/bin/../../lib\libc99-pic30-elf.a(addsf3x.XX_o) (__typef)
c:/program files/microchip/xc16/v2.10/bin/bin/../../lib\libc99-pic30-elf.a(propnanfx.XX_o)
                              c:/program files/microchip/xc16/v2.10/bin/bin/../../lib\libc99-pic30-elf.a(addsf3x.XX_o) (__propnanf)
c:/program files/microchip/xc16/v2.10/bin/bin/../../lib\libc99-pic30-elf.a(spackfx.XX_o)
                              c:/program files/microchip/xc16/v2.10/bin/bin/../../lib\libc99-pic30-elf.a(divsf3x.XX_o) (__spackf)
c:/program files/microchip/xc16/v2.10/bin/bin/../../lib\libc99-pic30-elf.a(unpackfx.XX_o)
                              c:/program files/microchip/xc16/v2.10/bin/bin/../../lib\libc99-pic30-elf.a(divsf3x.XX_o) (__unpackf)
c:/program files/microchip/xc16/v2.10/bin/bin/../../lib\libc99-pic30-elf.a(errno.XX_o)
                              c:/program files/microchip/xc16/v2.10/bin/bin/../../lib\libc99-pic30-elf.a(divsf3x.XX_o) (_errno)
c:/program files/microchip/xc16/v2.10/bin/bin/../../lib\libc99-pic30-elf.a(fcompare.XX_o)
                              c:/program files/microchip/xc16/v2.10/bin/bin/../../lib\libc99-pic30-elf.a(feqltle.XX_o) (__fcompare)
c:/program files/microchip/xc16/v2.10/bin/bin/../../lib\libc99-pic30-elf.a(floatdisf.XX_o)
                              c:/program files/microchip/xc16/v2.10/bin/bin/../../lib\libc99-pic30-elf.a(floatsisf.XX_o) (___floatdisf)
c:/program files/microchip/xc16/v2.10/bin/bin/../../lib\libc99-pic30-elf.a(floatundisf.XX_o)
                              c:/program files/microchip/xc16/v2.10/bin/bin/../../lib\libc99-pic30-elf.a(floatunsisf.XX_o) (___floatundisf)
c:/program files/microchip/xc16/v2.10/bin/bin/../../lib\libc99-pic30-elf.a(fpack.XX_o)
                              c:/program files/microchip/xc16/v2.10/bin/bin/../../lib\libc99-pic30-elf.a(floatundisf.XX_o) (__fpack)
c:/program files/microchip/xc16/v2.10/bin/bin/../../lib\libc99-pic30-elf.a(funpack2.XX_o)
                              c:/program files/microchip/xc16/v2.10/bin/bin/../../lib\libc99-pic30-elf.a(fcompare.XX_o) (__funpack2)
c:/program files/microchip/xc16/v2.10/bin/bin/../../lib\libc99-elf.a(__sio_printf_doux.XX_o)
                              build/default/debug/main.o (__printf_cdnopuxX)
c:/program files/microchip/xc16/v2.10/bin/bin/../../lib\libc99-elf.a(__sio_sprintf_doux.XX_o)
                              build/default/debug/main.o (__sprintf_cdnopuxX)
c:/program files/microchip/xc16/v2.10/bin/bin/../../lib\libc99-elf.a(__sio_sscanf_doux.XX_o)
                              build/default/debug/main.o (__sscanf_cdnopuxX)
c:/program files/microchip/xc16/v2.10/bin/bin/../../lib\libc99-elf.a(puts.XX_o)
                              build/default/debug/main.o (_puts)
c:/program files/microchip/xc16/v2.10/bin/bin/../../lib\libc99-elf.a(stdout.XX_o)
                              c:/program files/microchip/xc16/v2.10/bin/bin/../../lib\libc99-elf.a(__sio_printf_doux.XX_o) (__stdout)
c:/program files/microchip/xc16/v2.10/bin/bin/../../lib\libc99-elf.a(strncmp.XX_o)
                              build/default/debug/main.o (_strncmp)
c:/program files/microchip/xc16/v2.10/bin/bin/../../lib\libc99-elf.a(__fmt_d.XX_o)
                              c:/program files/microchip/xc16/v2.10/bin/bin/../../lib\libc99-elf.a(__sio_printf_doux.XX_o) (___fmt_d_needed)
c:/program files/microchip/xc16/v2.10/bin/bin/../../lib\libc99-elf.a(__fmt_o.XX_o)
                              c:/program files/microchip/xc16/v2.10/bin/bin/../../lib\libc99-elf.a(__sio_printf_doux.XX_o) (___fmt_o_needed)
c:/program files/microchip/xc16/v2.10/bin/bin/../../lib\libc99-elf.a(__fmt_s.XX_o)
                              c:/program files/microchip/xc16/v2.10/bin/bin/../../lib\libc99-elf.a(__sio_printf_doux.XX_o) (___fmt_s_needed)
c:/program files/microchip/xc16/v2.10/bin/bin/../../lib\libc99-elf.a(__fmt_u.XX_o)
                              c:/program files/microchip/xc16/v2.10/bin/bin/../../lib\libc99-elf.a(__fmt_d.XX_o) (___cvt_u)
c:/program files/microchip/xc16/v2.10/bin/bin/../../lib\libc99-elf.a(__fmt_x.XX_o)
                              c:/program files/microchip/xc16/v2.10/bin/bin/../../lib\libc99-elf.a(__sio_printf_doux.XX_o) (___fmt_x_needed)
c:/program files/microchip/xc16/v2.10/bin/bin/../../lib\libc99-elf.a(__int_vfprintf.XX_o)
                              c:/program files/microchip/xc16/v2.10/bin/bin/../../lib\libc99-elf.a(__sio_printf_doux.XX_o) (___vfprintf)
c:/program files/microchip/xc16/v2.10/bin/bin/../../lib\libc99-elf.a(__int_vsprintf.XX_o)
                              c:/program files/microchip/xc16/v2.10/bin/bin/../../lib\libc99-elf.a(__sio_sprintf_doux.XX_o) (___vsprintf)
c:/program files/microchip/xc16/v2.10/bin/bin/../../lib\libc99-elf.a(__int_vsscanf.XX_o)
                              c:/program files/microchip/xc16/v2.10/bin/bin/../../lib\libc99-elf.a(__sio_sscanf_doux.XX_o) (___vsscanf)
c:/program files/microchip/xc16/v2.10/bin/bin/../../lib\libc99-elf.a(__io_init_needed.XX_o)
                              c:/program files/microchip/xc16/v2.10/bin/bin/../../lib\libc99-elf.a(stdout.XX_o) (___io_init_needed)
c:/program files/microchip/xc16/v2.10/bin/bin/../../lib\libc99-elf.a(__out.XX_o)
                              c:/program files/microchip/xc16/v2.10/bin/bin/../../lib\libc99-elf.a(stdout.XX_o) (___stdio_write_unbuffered)
c:/program files/microchip/xc16/v2.10/bin/bin/../../lib\libc99-elf.a(__pop_int.XX_o)
                              c:/program files/microchip/xc16/v2.10/bin/bin/../../lib\libc99-elf.a(__sio_printf_doux.XX_o) (___pop_int_needed)
c:/program files/microchip/xc16/v2.10/bin/bin/../../lib\libc99-elf.a(__pop_ptr.XX_o)
                              c:/program files/microchip/xc16/v2.10/bin/bin/../../lib\libc99-elf.a(__sio_printf_doux.XX_o) (___pop_ptr_needed)
c:/program files/microchip/xc16/v2.10/bin/bin/../../lib\libc99-elf.a(__printf_core.XX_o)
                              c:/program files/microchip/xc16/v2.10/bin/bin/../../lib\libc99-elf.a(__fmt_d.XX_o) (___pad)
c:/program files/microchip/xc16/v2.10/bin/bin/../../lib\libc99-elf.a(__scan_d.XX_o)
                              c:/program files/microchip/xc16/v2.10/bin/bin/../../lib\libc99-elf.a(__sio_sscanf_doux.XX_o) (___scan_d_needed)
c:/program files/microchip/xc16/v2.10/bin/bin/../../lib\libc99-elf.a(__scan_i.XX_o)
                              c:/program files/microchip/xc16/v2.10/bin/bin/../../lib\libc99-elf.a(__scan_d.XX_o) (___scan_i_needed)
c:/program files/microchip/xc16/v2.10/bin/bin/../../lib\libc99-elf.a(__scan_o.XX_o)
                              c:/program files/microchip/xc16/v2.10/bin/bin/../../lib\libc99-elf.a(__sio_sscanf_doux.XX_o) (___scan_o_needed)
c:/program files/microchip/xc16/v2.10/bin/bin/../../lib\libc99-elf.a(__scan_s.XX_o)
                              c:/program files/microchip/xc16/v2.10/bin/bin/../../lib\libc99-elf.a(__sio_sscanf_doux.XX_o) (___scan_s_needed)
c:/program files/microchip/xc16/v2.10/bin/bin/../../lib\libc99-elf.a(__scan_u.XX_o)
                              c:/program files/microchip/xc16/v2.10/bin/bin/../../lib\libc99-elf.a(__sio_sscanf_doux.XX_o) (___scan_u_needed)
c:/program files/microchip/xc16/v2.10/bin/bin/../../lib\libc99-elf.a(__scan_x.XX_o)
                              c:/program files/microchip/xc16/v2.10/bin/bin/../../lib\libc99-elf.a(__sio_sscanf_doux.XX_o) (___scan_x_needed)
c:/program files/microchip/xc16/v2.10/bin/bin/../../lib\libc99-elf.a(__scanf_core.XX_o)
                              c:/program files/microchip/xc16/v2.10/bin/bin/../../lib\libc99-elf.a(__scan_i.XX_o) (___skipws)
c:/program files/microchip/xc16/v2.10/bin/bin/../../lib\libc99-elf.a(__stdio_close.XX_o)
                              c:/program files/microchip/xc16/v2.10/bin/bin/../../lib\libc99-elf.a(stdout.XX_o) (___stdio_close_rw)
c:/program files/microchip/xc16/v2.10/bin/bin/../../lib\libc99-elf.a(__string_read.XX_o)
                              c:/program files/microchip/xc16/v2.10/bin/bin/../../lib\libc99-elf.a(__int_vsscanf.XX_o) (___string_read)
c:/program files/microchip/xc16/v2.10/bin/bin/../../lib\libc99-elf.a(atoi.XX_o)
                              c:/program files/microchip/xc16/v2.10/bin/bin/../../lib\libc99-elf.a(__printf_core.XX_o) (_atoi)
c:/program files/microchip/xc16/v2.10/bin/bin/../../lib\libc99-elf.a(fputs.XX_o)
                              c:/program files/microchip/xc16/v2.10/bin/bin/../../lib\libc99-elf.a(puts.XX_o) (_fputs)
c:/program files/microchip/xc16/v2.10/bin/bin/../../lib\libc99-elf.a(fwrite.XX_o)
                              c:/program files/microchip/xc16/v2.10/bin/bin/../../lib\libc99-elf.a(fputs.XX_o) (_fwrite)
c:/program files/microchip/xc16/v2.10/bin/bin/../../lib\libc99-elf.a(isxdigit.XX_o)
                              c:/program files/microchip/xc16/v2.10/bin/bin/../../lib\libc99-elf.a(__scan_i.XX_o) (_isxdigit)
c:/program files/microchip/xc16/v2.10/bin/bin/../../lib\libc99-elf.a(lseek.XX_o)
                              c:/program files/microchip/xc16/v2.10/bin/bin/../../lib\libc99-elf.a(__stdio_close.XX_o) (_lseek)
c:/program files/microchip/xc16/v2.10/bin/bin/../../lib\libc99-elf.a(memchr.XX_o)
                              c:/program files/microchip/xc16/v2.10/bin/bin/../../lib\libc99-elf.a(__string_read.XX_o) (_memchr)
c:/program files/microchip/xc16/v2.10/bin/bin/../../lib\libc99-elf.a(memcpy.XX_o)
                              c:/program files/microchip/xc16/v2.10/bin/bin/../../lib\libc99-elf.a(__out.XX_o) (_memcpy)
c:/program files/microchip/xc16/v2.10/bin/bin/../../lib\libc99-elf.a(memset.XX_o)
                              c:/program files/microchip/xc16/v2.10/bin/bin/../../lib\libc99-elf.a(__printf_core.XX_o) (_memset)
c:/program files/microchip/xc16/v2.10/bin/bin/../../lib\libc99-elf.a(putc.XX_o)
                              c:/program files/microchip/xc16/v2.10/bin/bin/../../lib\libc99-elf.a(puts.XX_o) (_putc_unlocked)
c:/program files/microchip/xc16/v2.10/bin/bin/../../lib\libc99-elf.a(shgetc.XX_o)
                              c:/program files/microchip/xc16/v2.10/bin/bin/../../lib\libc99-elf.a(__scanf_core.XX_o) (___shlim)
c:/program files/microchip/xc16/v2.10/bin/bin/../../lib\libc99-elf.a(strlen.XX_o)
                              c:/program files/microchip/xc16/v2.10/bin/bin/../../lib\libc99-elf.a(__fmt_s.XX_o) (_strlen)
c:/program files/microchip/xc16/v2.10/bin/bin/../../lib\libc99-elf.a(strtol.XX_o)
                              c:/program files/microchip/xc16/v2.10/bin/bin/../../lib\libc99-elf.a(__scan_i.XX_o) (_strtoull)
c:/program files/microchip/xc16/v2.10/bin/bin/../../lib\libc99-elf.a(syscall_ret.XX_o)
                              c:/program files/microchip/xc16/v2.10/bin/bin/../../lib\libc99-elf.a(lseek.XX_o) (___syscall_ret)
c:/program files/microchip/xc16/v2.10/bin/bin/../../lib\libc99-elf.a(tolower.XX_o)
                              c:/program files/microchip/xc16/v2.10/bin/bin/../../lib\libc99-elf.a(__printf_core.XX_o) (_tolower)
c:/program files/microchip/xc16/v2.10/bin/bin/../../lib\libc99-elf.a(toupper.XX_o)
                              c:/program files/microchip/xc16/v2.10/bin/bin/../../lib\libc99-elf.a(__fmt_x.XX_o) (_toupper)
c:/program files/microchip/xc16/v2.10/bin/bin/../../lib\libc99-elf.a(__errno_location.XX_o)
                              c:/program files/microchip/xc16/v2.10/bin/bin/../../lib\libc99-elf.a(__printf_core.XX_o) (___errno_val)
c:/program files/microchip/xc16/v2.10/bin/bin/../../lib\libc99-elf.a(__init_stdio.XX_o)
                              c:/program files/microchip/xc16/v2.10/bin/bin/../../lib\libc99-elf.a(__io_init_needed.XX_o) (___init_stdio_needed)
c:/program files/microchip/xc16/v2.10/bin/bin/../../lib\libc99-elf.a(__int_vfscanf.XX_o)
                              c:/program files/microchip/xc16/v2.10/bin/bin/../../lib\libc99-elf.a(__int_vsscanf.XX_o) (___vfscanf)
c:/program files/microchip/xc16/v2.10/bin/bin/../../lib\libc99-elf.a(__int_vsnprintf.XX_o)
                              c:/program files/microchip/xc16/v2.10/bin/bin/../../lib\libc99-elf.a(__int_vsprintf.XX_o) (___vsnprintf)
c:/program files/microchip/xc16/v2.10/bin/bin/../../lib\libc99-elf.a(__io_file_needed.XX_o)
                              c:/program files/microchip/xc16/v2.10/bin/bin/../../lib\libc99-elf.a(__io_init_needed.XX_o) (___io_file_needed)
c:/program files/microchip/xc16/v2.10/bin/bin/../../lib\libc99-elf.a(__io_rw_needed.XX_o)
                              c:/program files/microchip/xc16/v2.10/bin/bin/../../lib\libc99-elf.a(__scanf_core.XX_o) (___io_rw_needed)
c:/program files/microchip/xc16/v2.10/bin/bin/../../lib\libc99-elf.a(__pop_float.XX_o)
                              c:/program files/microchip/xc16/v2.10/bin/bin/../../lib\libc99-elf.a(__printf_core.XX_o) (___pop_float)
c:/program files/microchip/xc16/v2.10/bin/bin/../../lib\libc99-elf.a(__push_float.XX_o)
                              c:/program files/microchip/xc16/v2.10/bin/bin/../../lib\libc99-elf.a(__scanf_core.XX_o) (___push_float)
c:/program files/microchip/xc16/v2.10/bin/bin/../../lib\libc99-elf.a(__push_int.XX_o)
                              c:/program files/microchip/xc16/v2.10/bin/bin/../../lib\libc99-elf.a(__scanf_core.XX_o) (___push_int)
c:/program files/microchip/xc16/v2.10/bin/bin/../../lib\libc99-elf.a(__read_int.XX_o)
                              c:/program files/microchip/xc16/v2.10/bin/bin/../../lib\libc99-elf.a(__scan_d.XX_o) (___read_int)
c:/program files/microchip/xc16/v2.10/bin/bin/../../lib\libc99-elf.a(__towrite_rw.XX_o)
                              c:/program files/microchip/xc16/v2.10/bin/bin/../../lib\libc99-elf.a(__io_rw_needed.XX_o) (___towrite_rw_needed)
c:/program files/microchip/xc16/v2.10/bin/bin/../../lib\libc99-elf.a(__uflow.XX_o)
                              c:/program files/microchip/xc16/v2.10/bin/bin/../../lib\libc99-elf.a(shgetc.XX_o) (___uflow)
c:/program files/microchip/xc16/v2.10/bin/bin/../../lib\libc99-elf.a(intscan.XX_o)
                              c:/program files/microchip/xc16/v2.10/bin/bin/../../lib\libc99-elf.a(strtol.XX_o) (___intscan)
c:/program files/microchip/xc16/v2.10/bin/bin/../../lib\libc99-elf.a(__fopen_rw.XX_o)
                              c:/program files/microchip/xc16/v2.10/bin/bin/../../lib\libc99-elf.a(__io_rw_needed.XX_o) (___fopen_rw_needed)
c:/program files/microchip/xc16/v2.10/bin/bin/../../lib\libc99-elf.a(__ftello_rw.XX_o)
                              c:/program files/microchip/xc16/v2.10/bin/bin/../../lib\libc99-elf.a(__io_rw_needed.XX_o) (___ftello_adj_rw_needed)
c:/program files/microchip/xc16/v2.10/bin/bin/../../lib\libc99-elf.a(__io_buf_needed.XX_o)
                              c:/program files/microchip/xc16/v2.10/bin/bin/../../lib\libc99-elf.a(__io_rw_needed.XX_o) (___io_buf_needed)
c:/program files/microchip/xc16/v2.10/bin/bin/../../lib\libc99-elf.a(__io_std_needed.XX_o)
                              c:/program files/microchip/xc16/v2.10/bin/bin/../../lib\libc99-elf.a(__io_buf_needed.XX_o) (___io_std_needed)
c:/program files/microchip/xc16/v2.10/bin/bin/../../lib\libc99-elf.a(__putc.XX_o)
                              c:/program files/microchip/xc16/v2.10/bin/bin/../../lib\libc99-elf.a(__io_buf_needed.XX_o) (___putc_needed)
c:/program files/microchip/xc16/v2.10/bin/bin/../../lib\libc99-elf.a(__stderr.XX_o)
                              c:/program files/microchip/xc16/v2.10/bin/bin/../../lib\libc99-elf.a(__io_std_needed.XX_o) (___init_stderr_needed)
c:/program files/microchip/xc16/v2.10/bin/bin/../../lib\libc99-elf.a(__stdio_exit.XX_o)
                              c:/program files/microchip/xc16/v2.10/bin/bin/../../lib\libc99-elf.a(__io_buf_needed.XX_o) (___stdio_exit_needed)
c:/program files/microchip/xc16/v2.10/bin/bin/../../lib\libc99-elf.a(__stdio_read.XX_o)
                              c:/program files/microchip/xc16/v2.10/bin/bin/../../lib\libc99-elf.a(__fopen_rw.XX_o) (___stdio_read)
c:/program files/microchip/xc16/v2.10/bin/bin/../../lib\libc99-elf.a(__stdio_seek.XX_o)
                              c:/program files/microchip/xc16/v2.10/bin/bin/../../lib\libc99-elf.a(__fopen_rw.XX_o) (___stdio_seek_rw)
c:/program files/microchip/xc16/v2.10/bin/bin/../../lib\libc99-elf.a(__stdout.XX_o)
                              c:/program files/microchip/xc16/v2.10/bin/bin/../../lib\libc99-elf.a(__io_std_needed.XX_o) (___init_stdout_needed)
c:/program files/microchip/xc16/v2.10/bin/bin/../../lib\libc99-elf.a(__toread.XX_o)
                              c:/program files/microchip/xc16/v2.10/bin/bin/../../lib\libc99-elf.a(__uflow.XX_o) (___toread)
c:/program files/microchip/xc16/v2.10/bin/bin/../../lib\libc99-elf.a(lite_malloc.XX_o)
                              c:/program files/microchip/xc16/v2.10/bin/bin/../../lib\libc99-elf.a(__fopen_rw.XX_o) (_malloc)
c:/program files/microchip/xc16/v2.10/bin/bin/../../lib\libc99-elf.a(readv.XX_o)
                              c:/program files/microchip/xc16/v2.10/bin/bin/../../lib\libc99-elf.a(__stdio_read.XX_o) (_readv)
c:/program files/microchip/xc16/v2.10/bin/bin/../../lib\libc99-elf.a(__fclose.XX_o)
                              c:/program files/microchip/xc16/v2.10/bin/bin/../../lib\libc99-elf.a(__io_buf_needed.XX_o) (___fclose_needed)
c:/program files/microchip/xc16/v2.10/bin/bin/../../lib\libc99-elf.a(__fopen.XX_o)
                              c:/program files/microchip/xc16/v2.10/bin/bin/../../lib\libc99-elf.a(__io_std_needed.XX_o) (___fopen_needed)
c:/program files/microchip/xc16/v2.10/bin/bin/../../lib\libc99-elf.a(__fseeko.XX_o)
                              c:/program files/microchip/xc16/v2.10/bin/bin/../../lib\libc99-elf.a(__io_buf_needed.XX_o) (___fseeko_needed)
c:/program files/microchip/xc16/v2.10/bin/bin/../../lib\libc99-elf.a(__ftello.XX_o)
                              c:/program files/microchip/xc16/v2.10/bin/bin/../../lib\libc99-elf.a(__io_buf_needed.XX_o) (___ftello_adj_needed)
c:/program files/microchip/xc16/v2.10/bin/bin/../../lib\libc99-elf.a(__fwrite.XX_o)
                              c:/program files/microchip/xc16/v2.10/bin/bin/../../lib\libc99-elf.a(__io_std_needed.XX_o) (___fwrite_needed)
c:/program files/microchip/xc16/v2.10/bin/bin/../../lib\libc99-elf.a(__overflow.XX_o)
                              c:/program files/microchip/xc16/v2.10/bin/bin/../../lib\libc99-elf.a(__putc.XX_o) (___overflow)
c:/program files/microchip/xc16/v2.10/bin/bin/../../lib\libc99-elf.a(__towrite.XX_o)
                              c:/program files/microchip/xc16/v2.10/bin/bin/../../lib\libc99-elf.a(__overflow.XX_o) (___towrite)
c:/program files/microchip/xc16/v2.10/bin/bin/../../lib\libc99-elf.a(expand_heap.XX_o)
                              c:/program files/microchip/xc16/v2.10/bin/bin/../../lib\libc99-elf.a(lite_malloc.XX_o) (___expand_heap)
c:/program files/microchip/xc16/v2.10/bin/bin/../../lib\libc99-pic30-elf.a(read.Meo)
                              c:/program files/microchip/xc16/v2.10/bin/bin/../../lib\libc99-elf.a(readv.XX_o) (_read)
c:/program files/microchip/xc16/v2.10/bin/bin/../../lib\libc99-pic30-elf.a(close.Meo)
                              c:/program files/microchip/xc16/v2.10/bin/bin/../../lib\libc99-elf.a(__stdio_close.XX_o) (_close)
c:/program files/microchip/xc16/v2.10/bin/bin/../../lib\libc99-pic30-elf.a(write.Meo)
                              c:/program files/microchip/xc16/v2.10/bin/bin/../../lib\libc99-elf.a(__out.XX_o) (_write)
c:/program files/microchip/xc16/v2.10/bin/bin/../../lib\libc99-pic30-elf.a(sbrk.Meo)
                              c:/program files/microchip/xc16/v2.10/bin/bin/../../lib\libc99-elf.a(expand_heap.XX_o) (_sbrk)
c:/program files/microchip/xc16/v2.10/bin/bin/../../lib\libc99-pic30-elf.a(c30_uart.Meo)
                              c:/program files/microchip/xc16/v2.10/bin/bin/../../lib\libc99-pic30-elf.a(read.Meo) (___C30_UART)
c:/program files/microchip/xc16/v2.10/bin/bin/../../lib\libc99-pic30-elf.a(extendsfdf.XX_o)
                              c:/program files/microchip/xc16/v2.10/bin/bin/../../lib\libc99-elf.a(__pop_float.XX_o) (___extendsfdf2)
c:/program files/microchip/xc16/v2.10/bin/bin/../../lib\libc99-pic30-elf.a(truncdfsf.XX_o)
                              c:/program files/microchip/xc16/v2.10/bin/bin/../../lib\libc99-elf.a(__push_float.XX_o) (___truncdfsf2)
c:/program files/microchip/xc16/v2.10/bin/bin/../../lib\libc99-pic30-elf.a(mulsi3.XX_o)
                              c:/program files/microchip/xc16/v2.10/bin/bin/../../lib\libc99-elf.a(memset.XX_o) (___mulsi3)
c:/program files/microchip/xc16/v2.10/bin/bin/../../lib\libc99-pic30-elf.a(divmoddi3.XX_o)
                              c:/program files/microchip/xc16/v2.10/bin/bin/../../lib\libc99-elf.a(__fmt_u.XX_o) (___udivdi3)
c:/program files/microchip/xc16/v2.10/bin/bin/../../lib\libc99-pic30-elf.a(muldi3.XX_o)
                              c:/program files/microchip/xc16/v2.10/bin/bin/../../lib\libc99-elf.a(intscan.XX_o) (___muldi3)
c:/program files/microchip/xc16/v2.10/bin/bin/../../lib\libc99-pic30-elf.a(brk.Meo)
                              c:/program files/microchip/xc16/v2.10/bin/bin/../../lib\libc99-pic30-elf.a(sbrk.Meo) (_brk)
c:/program files/microchip/xc16/v2.10/bin/bin/../../lib\libc99-pic30-elf.a(dunpack.XX_o)
                              c:/program files/microchip/xc16/v2.10/bin/bin/../../lib\libc99-pic30-elf.a(truncdfsf.XX_o) (__dunpack)
c:/program files/microchip/xc16/v2.10/bin/bin/../../lib\libc99-pic30-elf.a(dunpack2.XX_o)
                              c:/program files/microchip/xc16/v2.10/bin/bin/../../lib\libc99-pic30-elf.a(truncdfsf.XX_o) (__dunpack2exit)
c:/program files/microchip/xc16/v2.10/bin/bin/../../lib\libc99-pic30-elf.a(umuldi3.XX_o)
                              c:/program files/microchip/xc16/v2.10/bin/bin/../../lib\libc99-pic30-elf.a(muldi3.XX_o) (___umuldi3)
c:/program files/microchip/xc16/v2.10/bin/bin/../../lib\libc99-pic30-elf.a(dpropagateNaN.XX_o)
                              c:/program files/microchip/xc16/v2.10/bin/bin/../../lib\libc99-pic30-elf.a(dunpack2.XX_o) (__dPropagateNaN)


Selected CodeGuard Options:
  FGS:GWRP:OFF
  FGS:GSS:OFF
  FSS:SWRP:WRPROTECT_OFF
  FSS:SSS:NO_FLASH
  FSS:RSS:NO_RAM
  FBS:BWRP:WRPROTECT_OFF
  FBS:BSS:NO_FLASH
  FBS:RBS:NO_RAM

CodeGuard FLASH Memory:
  boot    (none)
  secure  (none)
  general 0x200 to 0x2abfe

CodeGuard RAM Memory:
  general 0x800 to 0x7fff
  secure  (none)
  boot    (none)


xc16-ld 2.10 (B)

Default Code Model: Small
Default Data Model: Large
Default Scalar Model: Small

"program" Memory  [Origin = 0x200, Length = 0x2aa00]

section                    address   length (PC units)   length (bytes) (dec)
-------                    -------   -----------------   --------------------
.text                        0x200              0x350c          0x4f92  (20370)
.const                      0x370c               0x23c           0x35a  (858)
.text                       0x3948              0x24ee          0x3765  (14181)
.dinit                      0x5e36               0x1c6           0x2a9  (681)
.text                       0x5ffc               0x77c           0xb3a  (2874)
.init.delay32               0x6778                0x1c            0x2a  (42)
.text                       0x6794                 0x6             0x9  (9)

                 Total "program" memory used (bytes):         0x9867  (39015) 14%


"data" Memory  [Origin = 0x800, Length = 0x7800]

section                    address      alignment gaps    total length  (dec)
-------                    -------      --------------    -------------------
reserve_data_0x800           0x800                0x20            0x20  (32)
reserve_data_0x820           0x820                 0x2             0x2  (2)
reserve_data_0x822           0x822                 0x2             0x2  (2)
reserve_data_0x824           0x824                 0x2             0x2  (2)
reserve_data_0x826           0x826                0x2a            0x2a  (42)
.nbss                        0x850                   0           0x11e  (286)
.ndata                       0x96e                   0            0x14  (20)
.nbss                        0x982                   0            0x12  (18)
.bss                         0x994                   0           0x1d8  (472)
.data                        0xb6c                   0           0x1e2  (482)
.bss                         0xd4e                   0             0x8  (8)
.data                        0xd56                   0             0x2  (2)
.bss                         0xd58                   0             0x2  (2)
_0000000005FE1A0067127187    0x7f7e                   0            0x82  (130)

                 Total "data" memory used (bytes):          0x5dc  (1500) 4%


Dynamic Memory Usage

region                     address                      maximum length  (dec)
------                     -------                      ---------------------
heap                             0                                   0  (0)
stack                        0xd5a                              0x7224  (29220)

                 Maximum dynamic memory (bytes):         0x7224  (29220)

Info: Project is using a large data memory model when small data memory model is sufficient.


External Symbols in Data Memory (by address):

                    0x0850                  _ND
                    0x0852                  _PIR
                    0x0854                  _Qgasoil
                    0x0856                  _Qmot
                    0x0858                  _RH
                    0x085a                  _TCF
                    0x085c                  _tCIC
                    0x085e                  _TD
                    0x0860                  _TIB
                    0x0862                  _TIP
                    0x0864                  _TIR
                    0x0866                  _TIR1
                    0x0868                  _TIR2
                    0x086a                  _Pservos
                    0x086c                  _ApQ
                    0x086e                  _DOK
                    0x086f                  _REhorno
                    0x0870                  _LlaQuemador
                    0x0871                  _AlarV
                    0x0872                  _REbasc
                    0x0873                  _REpc
                    0x0874                  _Ctl_Llama
                    0x0875                  _Cesto_0
                    0x0876                  _Cesto_1
                    0x0877                  _Molino_march
                    0x0878                  _BombaM_march
                    0x0879                  _EN_ESPERA
                    0x087a                  _MODO_MANUAL
                    0x087b                  _EN_CICLO
                    0x087c                  _AlarR
                    0x087e                  _DA
                    0x0880                  _Alarma_verde
                    0x0881                  _Alarma_roja
                    0x0882                  _QMAR
                    0x0884                  _Err
                    0x0886                  _TIRN
                    0x0888                  _DB
                    0x088a                  _ApSApSV
                    0x088c                  _ET
                    0x088e                  _tETAP
                    0x0890                  _FINAL
                    0x0892                  _RES1
                    0x0894                  _RES2
                    0x0896                  _RES3
                    0x0898                  _SK
                    0x089a                  _T
                    0x089c                  _dR
                    0x089e                  _NDB
                    0x08a0                  _NDMAX
                    0x08a2                  _NDMIN
                    0x08a4                  _NEQ
                    0x08a6                  _PEMP
                    0x08a8                  _PETARA
                    0x08aa                  _PIRMAX
                    0x08ac                  _PIRNOM
                    0x08ae                  _STALARM
                    0x08b0                  _TCCORT
                    0x08b2                  _TCFAlar
                    0x08b4                  _TDMax
                    0x08b6                  _tESTR
                    0x08b8                  _TEXT
                    0x08ba                  _TIRBP
                    0x08bc                  _TIRC1
                    0x08be                  _TIRC2
                    0x08c0                  _TIRC3
                    0x08c2                  _TIRNA
                    0x08c4                  _TPCMAX
                    0x08c6                  _tPIR1
                    0x08c8                  _tPIR2
                    0x08ca                  _tPIR3
                    0x08cc                  _TMAN
                    0x08ce                  _TPIRO1
                    0x08d0                  _TPIRO2
                    0x08d2                  _TPIRO3
                    0x08d4                  _TVUELC
                    0x08d6                  _Esc500
                    0x08d8                  _Esc800
                    0x08da                  _Esc060
                    0x08dc                  _EscMPX
                    0x08de                  _EscNIV
                    0x08e0                  _dPIR
                    0x08e2                  _ALARLAV
                    0x08e4                  _ALARINM
                    0x08e6                  _TCCORT_MUL2
                    0x08e8                  _TIRA
                    0x08ec                  _TIRIBP
                    0x08ee                  _ReLCC
                    0x08f2                  _NCB
                    0x08f6                  _NCMAX
                    0x08fa                  _NCMIN
                    0x08fe                  _CHEK_A
                    0x0900                  _CHEK_P
                    0x0902                  _CHEK_C
                    0x0904                  _CHEK_PAR
                    0x0906                  _RX_CHEKP
                    0x0908                  _RX_CHEKA
                    0x090a                  _RX_CHEKC
                    0x090c                  _VF_actual
                    0x0910                  _VF_anterior
                    0x0914                  _operando_a
                    0x0918                  _operando_b
                    0x091c                  _TP1S
                    0x091e                  _TP10S
                    0x0920                  _ticks
                    0x0922                  _seg_acum
                    0x0924                  _min
                    0x0926                  _SOFTK_A
                    0x0928                  _SOFTK_N
                    0x092a                  _SOFTK_N1
                    0x092c                  _YAC
                    0x092d                  _PASADA
                    0x092e                  _Punto
                    0x0930                  _SK_C
                    0x0932                  _SALIR_MANUAL
                    0x0934                  _MODO
                    0x0936                  _num
                    0x0938                  _BANDERA_HELPQTCF
                    0x0939                  _BANDERA_HELPQNDmax
                    0x093a                  _BANDERA_HELPQNDmin
                    0x093b                  _BANDERA_HELPQ
                    0x093c                  _BANDERA_ALARMAQENC
                    0x093d                  _BANDERA_ALARQUEM
                    0x093e                  _BANDERA_noquema
                    0x093f                  _BANDERA_quemador
                    0x0940                  _aviso_Qarr
                    0x0942                  _SK_Q
                    0x0944                  _APQ
                    0x0945                  _apagar_Q
                    0x0946                  _BANDERA_ACTUALIZAQ
                    0x0947                  _BANDERA_RETROCERQ
                    0x0948                  _tiempo_ENCQUEMA
                    0x094a                  _tiempo_segQ
                    0x094c                  _BANDERA_HELPM
                    0x094d                  _BANDERA_ALARMOL
                    0x094e                  _BANDERA_nomolino
                    0x094f                  _BANDERA_molino
                    0x0950                  _aviso_Larr
                    0x0952                  _SK_M
                    0x0954                  _APM
                    0x0955                  _apagar_M
                    0x0956                  _BANDERA_ACTUALIZAM
                    0x0957                  _BANDERA_RETROCERM
                    0x0958                  _BANDERA_lluviamarch
                    0x0959                  _BANDERA_HELPP
                    0x095a                  _BANDERA_ALARPRE
                    0x095b                  _BANDERA_nopre
                    0x095c                  _BANDERA_precalentador
                    0x095d                  _aviso_Parr
                    0x095e                  _SK_PRE
                    0x0960                  _APP
                    0x0961                  _apagar_P
                    0x0962                  _BANDERA_ACTUALIZAP
                    0x0963                  _BANDERA_RETROCERP
                    0x0964                  _ESTADO_0
                    0x0966                  _RETORNAR
                    0x0967                  _tabla_sk
                    0x0968                  _EnCICLO
                    0x096a                  _Ppal
                    0x096c                  _signal_emergencia
                    0x096e                  _version
                    0x0972                  _NP1K
                    0x0974                  _NP2S
                    0x0976                  _NP4K
                    0x0978                  _NP5K
                    0x097a                  _NP10K
                    0x097c                  _seg
                    0x097e                  _ticks_Q
                    0x0980                  _ESTADO_1
                    0x0982                  _jDone
                    0x098a                  _timeout
                    0x098c                  _iloop
                    0x0994                  _dato_Rx
                    0x0a2a                  _aux_dma_tx
                    0x0a6c                  _Eparam
                    0x0aa8                  _E1param
                    0x0ae4                  _cons_param
                    0x0b20                  _cons_param1
                    0x0b5c                  _V
                    0x0c76                  __stdout
                    0x0c78                  ___stdout_used
                    0x0d52                  ___errno_val
                    0x0d56                  ___C30_UART
                    0x0d58                  ___curbrk
                    0x7f7e                  _BufferA

External Symbols in Data Memory (by name):

                    0x08e4                  _ALARINM
                    0x08e2                  _ALARLAV
                    0x0954                  _APM
                    0x0960                  _APP
                    0x0944                  _APQ
                    0x087c                  _AlarR
                    0x0871                  _AlarV
                    0x0881                  _Alarma_roja
                    0x0880                  _Alarma_verde
                    0x086c                  _ApQ
                    0x088a                  _ApSApSV
                    0x0956                  _BANDERA_ACTUALIZAM
                    0x0962                  _BANDERA_ACTUALIZAP
                    0x0946                  _BANDERA_ACTUALIZAQ
                    0x093c                  _BANDERA_ALARMAQENC
                    0x094d                  _BANDERA_ALARMOL
                    0x095a                  _BANDERA_ALARPRE
                    0x093d                  _BANDERA_ALARQUEM
                    0x094c                  _BANDERA_HELPM
                    0x0959                  _BANDERA_HELPP
                    0x093b                  _BANDERA_HELPQ
                    0x0939                  _BANDERA_HELPQNDmax
                    0x093a                  _BANDERA_HELPQNDmin
                    0x0938                  _BANDERA_HELPQTCF
                    0x0957                  _BANDERA_RETROCERM
                    0x0963                  _BANDERA_RETROCERP
                    0x0947                  _BANDERA_RETROCERQ
                    0x0958                  _BANDERA_lluviamarch
                    0x094f                  _BANDERA_molino
                    0x094e                  _BANDERA_nomolino
                    0x095b                  _BANDERA_nopre
                    0x093e                  _BANDERA_noquema
                    0x095c                  _BANDERA_precalentador
                    0x093f                  _BANDERA_quemador
                    0x0878                  _BombaM_march
                    0x7f7e                  _BufferA
                    0x08fe                  _CHEK_A
                    0x0902                  _CHEK_C
                    0x0900                  _CHEK_P
                    0x0904                  _CHEK_PAR
                    0x0875                  _Cesto_0
                    0x0876                  _Cesto_1
                    0x0874                  _Ctl_Llama
                    0x087e                  _DA
                    0x0888                  _DB
                    0x086e                  _DOK
                    0x0aa8                  _E1param
                    0x087b                  _EN_CICLO
                    0x0879                  _EN_ESPERA
                    0x0964                  _ESTADO_0
                    0x0980                  _ESTADO_1
                    0x088c                  _ET
                    0x0968                  _EnCICLO
                    0x0a6c                  _Eparam
                    0x0884                  _Err
                    0x08da                  _Esc060
                    0x08d6                  _Esc500
                    0x08d8                  _Esc800
                    0x08dc                  _EscMPX
                    0x08de                  _EscNIV
                    0x0890                  _FINAL
                    0x0870                  _LlaQuemador
                    0x0934                  _MODO
                    0x087a                  _MODO_MANUAL
                    0x0877                  _Molino_march
                    0x08f2                  _NCB
                    0x08f6                  _NCMAX
                    0x08fa                  _NCMIN
                    0x0850                  _ND
                    0x089e                  _NDB
                    0x08a0                  _NDMAX
                    0x08a2                  _NDMIN
                    0x08a4                  _NEQ
                    0x097a                  _NP10K
                    0x0972                  _NP1K
                    0x0974                  _NP2S
                    0x0976                  _NP4K
                    0x0978                  _NP5K
                    0x092d                  _PASADA
                    0x08a6                  _PEMP
                    0x08a8                  _PETARA
                    0x0852                  _PIR
                    0x08aa                  _PIRMAX
                    0x08ac                  _PIRNOM
                    0x096a                  _Ppal
                    0x086a                  _Pservos
                    0x092e                  _Punto
                    0x0882                  _QMAR
                    0x0854                  _Qgasoil
                    0x0856                  _Qmot
                    0x0892                  _RES1
                    0x0894                  _RES2
                    0x0896                  _RES3
                    0x0966                  _RETORNAR
                    0x0872                  _REbasc
                    0x086f                  _REhorno
                    0x0873                  _REpc
                    0x0858                  _RH
                    0x0908                  _RX_CHEKA
                    0x090a                  _RX_CHEKC
                    0x0906                  _RX_CHEKP
                    0x08ee                  _ReLCC
                    0x0932                  _SALIR_MANUAL
                    0x0898                  _SK
                    0x0930                  _SK_C
                    0x0952                  _SK_M
                    0x095e                  _SK_PRE
                    0x0942                  _SK_Q
                    0x0926                  _SOFTK_A
                    0x0928                  _SOFTK_N
                    0x092a                  _SOFTK_N1
                    0x08ae                  _STALARM
                    0x089a                  _T
                    0x08b0                  _TCCORT
                    0x08e6                  _TCCORT_MUL2
                    0x085a                  _TCF
                    0x08b2                  _TCFAlar
                    0x085e                  _TD
                    0x08b4                  _TDMax
                    0x08b8                  _TEXT
                    0x0860                  _TIB
                    0x0862                  _TIP
                    0x0864                  _TIR
                    0x0866                  _TIR1
                    0x0868                  _TIR2
                    0x08e8                  _TIRA
                    0x08ba                  _TIRBP
                    0x08bc                  _TIRC1
                    0x08be                  _TIRC2
                    0x08c0                  _TIRC3
                    0x08ec                  _TIRIBP
                    0x0886                  _TIRN
                    0x08c2                  _TIRNA
                    0x08cc                  _TMAN
                    0x091e                  _TP10S
                    0x091c                  _TP1S
                    0x08c4                  _TPCMAX
                    0x08ce                  _TPIRO1
                    0x08d0                  _TPIRO2
                    0x08d2                  _TPIRO3
                    0x08d4                  _TVUELC
                    0x0b5c                  _V
                    0x090c                  _VF_actual
                    0x0910                  _VF_anterior
                    0x092c                  _YAC
                    0x0d56                  ___C30_UART
                    0x0d58                  ___curbrk
                    0x0d52                  ___errno_val
                    0x0c78                  ___stdout_used
                    0x0c76                  __stdout
                    0x0955                  _apagar_M
                    0x0961                  _apagar_P
                    0x0945                  _apagar_Q
                    0x0a2a                  _aux_dma_tx
                    0x0950                  _aviso_Larr
                    0x095d                  _aviso_Parr
                    0x0940                  _aviso_Qarr
                    0x0ae4                  _cons_param
                    0x0b20                  _cons_param1
                    0x08e0                  _dPIR
                    0x089c                  _dR
                    0x0994                  _dato_Rx
                    0x098c                  _iloop
                    0x0982                  _jDone
                    0x0924                  _min
                    0x0936                  _num
                    0x0914                  _operando_a
                    0x0918                  _operando_b
                    0x097c                  _seg
                    0x0922                  _seg_acum
                    0x096c                  _signal_emergencia
                    0x085c                  _tCIC
                    0x08b6                  _tESTR
                    0x088e                  _tETAP
                    0x08c6                  _tPIR1
                    0x08c8                  _tPIR2
                    0x08ca                  _tPIR3
                    0x0967                  _tabla_sk
                    0x0920                  _ticks
                    0x097e                  _ticks_Q
                    0x0948                  _tiempo_ENCQUEMA
                    0x094a                  _tiempo_segQ
                    0x098a                  _timeout
                    0x096e                  _version

External Symbols in Program Memory (by address):

                  0x000200                  __resetPRI
                  0x00023c                  __psv_init
                  0x000252                  __data_init_standard
                  0x000252                  __data_init
                  0x0002f0                  __DMA0Interrupt
                  0x0002f8                  __T2Interrupt
                  0x0006f0                  __MI2C1Interrupt
                  0x000700                  __SI2C1Interrupt
                  0x000708                  __U1RXInterrupt
                  0x000760                  __DefaultInterrupt
                  0x0008c6                  _DataRdyUART1
                  0x0008cc                  _ReadUART1
                  0x0008e0                  ___ltsf2
                  0x0008e0                  ___lesf2
                  0x0008e0                  ___eqsf2
                  0x0008e4                  ___gesf2
                  0x0008e4                  ___gtsf2
                  0x0008e8                  ___fixsfsi
                  0x00092a                  ___fixunssfsi
                  0x000960                  ___floatsisf
                  0x000966                  ___floatunsisf
                  0x00096a                  __funpack
                  0x000994                  ___subsf3x
                  0x000994                  ___subsf3
                  0x0009a6                  ___addsf3x
                  0x0009a6                  ___addsf3
                  0x000b70                  ___divsf3
                  0x000b70                  ___divsf3x
                  0x000d02                  __sdivf
                  0x000d2e                  ___mulsf3x
                  0x000d2e                  ___mulsf3
                  0x000e3a                  __dnrmpackf
                  0x000e8e                  __unpackdnrmf
                  0x000eec                  __typef
                  0x000f20                  __propnanf
                  0x000f32                  __spackf
                  0x000fd8                  __unpackf
                  0x00103e                  __fcompare
                  0x001074                  ___floatdisf
                  0x001094                  ___floatundisf
                  0x0010f2                  __fpack
                  0x00113e                  __funpack2
                  0x00115e                  ___sio_printf_doux
                  0x001178                  ___sio_sprintf_doux
                  0x001192                  ___sio_sscanf_doux
                  0x00119c                  _puts
                  0x0011bc                  ___init_stdout
                  0x0011c4                  _strncmp
                  0x0011ee                  ___fmt_d
                  0x0012a0                  ___fmt_o
                  0x00130a                  ___fmt_s
                  0x00135e                  ___cvt_u
                  0x001404                  ___fmt_u
                  0x001456                  ___fmt_x
                  0x0015a0                  ___vfprintf
                  0x0015bc                  ___vsprintf
                  0x0015c4                  __int_vsscanf.XX_o:_do_read
                  0x0015c6                  ___vsscanf
                  0x00160c                  ___out
                  0x00161c                  ___pop_int
                  0x0016c4                  ___pop_ptr
                  0x00175a                  ___pad
                  0x0017d4                  ___fmt_state
                  0x001ad8                  ___printf_core
                  0x001b18                  ___scan_d
                  0x001b46                  ___scan_i
                  0x001c88                  ___scan_o
                  0x001d34                  ___scan_s
                  0x001dbe                  ___scan_u
                  0x001dec                  ___scan_x
                  0x001edc                  ___skipws
                  0x001f16                  ___consumews
                  0x0022e4                  ___scanf_core
                  0x00232c                  ___stdio_close
                  0x00236a                  ___stdio_close_rw
                  0x0023c2                  ___string_read
                  0x00241a                  _atoi
                  0x002466                  _fputs
                  0x002492                  _fwrite
                  0x0024be                  _isxdigit
                  0x0024d6                  ___isxdigit_l
                  0x0024d8                  ___lseek
                  0x0024e4                  _memchr
                  0x002544                  _memcpy
                  0x002552                  _memset
                  0x00261a                  ___putc_unbuffered
                  0x002648                  _putc
                  0x00264a                  ___shlim
                  0x002694                  ___shgetc
                  0x0027c4                  _strlen
                  0x002846                  _strtoull
                  0x00284e                  _strtoll
                  0x002856                  _strtoul
                  0x00285e                  _strtol
                  0x002866                  _strtoimax
                  0x002868                  _strtoumax
                  0x00286a                  ___syscall_ret
                  0x00287e                  _tolower
                  0x00288a                  ___tolower_l
                  0x00288c                  _toupper
                  0x002898                  ___toupper_l
                  0x00289c                  ___init_stdio
                  0x0028a2                  ___vfscanf
                  0x0028be                  ___vsnprintf
                  0x002908                  ___pop_float
                  0x002946                  ___push_float
                  0x002984                  ___push_int
                  0x0029f6                  ___read_int
                  0x002a80                  ___towrite_rw
                  0x002a9c                  ___uflow
                  0x002ada                  ___intscan
                  0x002f0c                  ___fopen_rw
                  0x002f44                  ___ftello_adj_rw
                  0x002f7a                  ___putc
                  0x002fae                  ___get_stderr
                  0x002fb6                  ___stdio_exit
                  0x002fca                  ___stdio_read
                  0x003034                  ___stdio_seek_unbuffered
                  0x00305e                  ___stdio_seek
                  0x0030ae                  ___stdio_seek_rw
                  0x003132                  ___get_stdout
                  0x003136                  ___toread
                  0x00317e                  ___toread_needs_stdio_exit
                  0x003180                  ___simple_malloc
                  0x003234                  ___fclose
                  0x003274                  ___fopen
                  0x003276                  ___fseeko
                  0x00329a                  ___ftello_adj
                  0x00329c                  ___fwrite
                  0x0032a8                  ___overflow
                  0x0032fa                  ___towrite
                  0x003316                  ___expand_heap
                  0x003336                  ___extendsfdf2
                  0x003374                  ___truncdfsf2
                  0x0033ca                  ___mulsi3
                  0x0033ca                  ___mulp32eds3
                  0x0033ca                  ___mulp32peds3
                  0x003422                  ___udivmoddi3
                  0x003508                  ___udivdi3
                  0x003516                  ___umoddi3
                  0x00351e                  ___divdi3
                  0x00357e                  ___moddi3
                  0x0035da                  ___muldi3
                  0x00362c                  __dunpack
                  0x00367a                  __dunpack2
                  0x00369c                  __dreturnNaN
                  0x0036a2                  __dunpack2exit
                  0x0036ac                  ___umuldi3
                  0x0036f0                  __dPropagateNaN
                  0x003948                  _main
                  0x004b4e                  _parametros
                  0x005008                  _Molino
                  0x0053c8                  _convierteAD
                  0x005408                  _enviar_DMA
                  0x00541c                  _cargar_DMA_A
                  0x005468                  _cargar_DMA_C
                  0x0054b4                  _escribir_Eeprom
                  0x005568                  _leer_Eeprom
                  0x00560c                  _RAMPA_Dac
                  0x0056f8                  _I2CEMEMinit
                  0x005722                  _I2CEMEMdrv
                  0x0059de                  _Quemador
                  0x005c30                  _Precalentador
                  0x005ffc                  _Apq
                  0x006192                  _sonido_1
                  0x006256                  _sonido_2
                  0x00631c                  _configurarEntradasSalidas
                  0x00634a                  _WDT_disable
                  0x006352                  _configurarSistema
                  0x00635e                  _configurarPLL
                  0x0063ae                  _inicializaPrioridadInterrupciones
                  0x0063ec                  _inicializaADC
                  0x006406                  _inicializaUART
                  0x006432                  _inicializaDMA
                  0x006450                  _control_param
                  0x00655a                  _generar_A
                  0x006642                  _Manual
                  0x0066ce                  _inicializaTimer2
                  0x0066f8                  _RUN_Timer2
                  0x006702                  _STOP_Timer2
                  0x00670c                  _resetTimer2
                  0x00671a                  _tiempo_Q
                  0x006740                  _reset_tiempoQ
                  0x006750                  _pulso_watchdog
                  0x006778                  ___delay32
                  0x006794                  _Automatico
                  0xf80000                  __FBS.sec
                  0xf80002                  __FSS.sec
                  0xf80004                  __FGS.sec

External Symbols in Program Memory (by name):

                  0x005ffc                  _Apq
                  0x006794                  _Automatico
                  0x0008c6                  _DataRdyUART1
                  0x005722                  _I2CEMEMdrv
                  0x0056f8                  _I2CEMEMinit
                  0x006642                  _Manual
                  0x005008                  _Molino
                  0x005c30                  _Precalentador
                  0x0059de                  _Quemador
                  0x00560c                  _RAMPA_Dac
                  0x0066f8                  _RUN_Timer2
                  0x0008cc                  _ReadUART1
                  0x006702                  _STOP_Timer2
                  0x00634a                  _WDT_disable
                  0x0002f0                  __DMA0Interrupt
                  0x000760                  __DefaultInterrupt
                  0xf80000                  __FBS.sec
                  0xf80004                  __FGS.sec
                  0xf80002                  __FSS.sec
                  0x0006f0                  __MI2C1Interrupt
                  0x000700                  __SI2C1Interrupt
                  0x0002f8                  __T2Interrupt
                  0x000708                  __U1RXInterrupt
                  0x0009a6                  ___addsf3
                  0x0009a6                  ___addsf3x
                  0x001f16                  ___consumews
                  0x00135e                  ___cvt_u
                  0x006778                  ___delay32
                  0x00351e                  ___divdi3
                  0x000b70                  ___divsf3
                  0x000b70                  ___divsf3x
                  0x0008e0                  ___eqsf2
                  0x003316                  ___expand_heap
                  0x003336                  ___extendsfdf2
                  0x003234                  ___fclose
                  0x0008e8                  ___fixsfsi
                  0x00092a                  ___fixunssfsi
                  0x001074                  ___floatdisf
                  0x000960                  ___floatsisf
                  0x001094                  ___floatundisf
                  0x000966                  ___floatunsisf
                  0x0011ee                  ___fmt_d
                  0x0012a0                  ___fmt_o
                  0x00130a                  ___fmt_s
                  0x0017d4                  ___fmt_state
                  0x001404                  ___fmt_u
                  0x001456                  ___fmt_x
                  0x003274                  ___fopen
                  0x002f0c                  ___fopen_rw
                  0x003276                  ___fseeko
                  0x00329a                  ___ftello_adj
                  0x002f44                  ___ftello_adj_rw
                  0x00329c                  ___fwrite
                  0x0008e4                  ___gesf2
                  0x002fae                  ___get_stderr
                  0x003132                  ___get_stdout
                  0x0008e4                  ___gtsf2
                  0x00289c                  ___init_stdio
                  0x0011bc                  ___init_stdout
                  0x002ada                  ___intscan
                  0x0024d6                  ___isxdigit_l
                  0x0008e0                  ___lesf2
                  0x0024d8                  ___lseek
                  0x0008e0                  ___ltsf2
                  0x00357e                  ___moddi3
                  0x0035da                  ___muldi3
                  0x0033ca                  ___mulp32eds3
                  0x0033ca                  ___mulp32peds3
                  0x000d2e                  ___mulsf3
                  0x000d2e                  ___mulsf3x
                  0x0033ca                  ___mulsi3
                  0x00160c                  ___out
                  0x0032a8                  ___overflow
                  0x00175a                  ___pad
                  0x002908                  ___pop_float
                  0x00161c                  ___pop_int
                  0x0016c4                  ___pop_ptr
                  0x001ad8                  ___printf_core
                  0x002946                  ___push_float
                  0x002984                  ___push_int
                  0x002f7a                  ___putc
                  0x00261a                  ___putc_unbuffered
                  0x0029f6                  ___read_int
                  0x001b18                  ___scan_d
                  0x001b46                  ___scan_i
                  0x001c88                  ___scan_o
                  0x001d34                  ___scan_s
                  0x001dbe                  ___scan_u
                  0x001dec                  ___scan_x
                  0x0022e4                  ___scanf_core
                  0x002694                  ___shgetc
                  0x00264a                  ___shlim
                  0x003180                  ___simple_malloc
                  0x00115e                  ___sio_printf_doux
                  0x001178                  ___sio_sprintf_doux
                  0x001192                  ___sio_sscanf_doux
                  0x001edc                  ___skipws
                  0x00232c                  ___stdio_close
                  0x00236a                  ___stdio_close_rw
                  0x002fb6                  ___stdio_exit
                  0x002fca                  ___stdio_read
                  0x00305e                  ___stdio_seek
                  0x0030ae                  ___stdio_seek_rw
                  0x003034                  ___stdio_seek_unbuffered
                  0x0023c2                  ___string_read
                  0x000994                  ___subsf3
                  0x000994                  ___subsf3x
                  0x00286a                  ___syscall_ret
                  0x00288a                  ___tolower_l
                  0x003136                  ___toread
                  0x00317e                  ___toread_needs_stdio_exit
                  0x002898                  ___toupper_l
                  0x0032fa                  ___towrite
                  0x002a80                  ___towrite_rw
                  0x003374                  ___truncdfsf2
                  0x003508                  ___udivdi3
                  0x003422                  ___udivmoddi3
                  0x002a9c                  ___uflow
                  0x003516                  ___umoddi3
                  0x0036ac                  ___umuldi3
                  0x0015a0                  ___vfprintf
                  0x0028a2                  ___vfscanf
                  0x0028be                  ___vsnprintf
                  0x0015bc                  ___vsprintf
                  0x0015c6                  ___vsscanf
                  0x0036f0                  __dPropagateNaN
                  0x000252                  __data_init
                  0x000252                  __data_init_standard
                  0x000e3a                  __dnrmpackf
                  0x00369c                  __dreturnNaN
                  0x00362c                  __dunpack
                  0x00367a                  __dunpack2
                  0x0036a2                  __dunpack2exit
                  0x00103e                  __fcompare
                  0x0010f2                  __fpack
                  0x00096a                  __funpack
                  0x00113e                  __funpack2
                  0x0015c4                  __int_vsscanf.XX_o:_do_read
                  0x000f20                  __propnanf
                  0x00023c                  __psv_init
                  0x000200                  __resetPRI
                  0x000d02                  __sdivf
                  0x000f32                  __spackf
                  0x000eec                  __typef
                  0x000e8e                  __unpackdnrmf
                  0x000fd8                  __unpackf
                  0x00241a                  _atoi
                  0x00541c                  _cargar_DMA_A
                  0x005468                  _cargar_DMA_C
                  0x00631c                  _configurarEntradasSalidas
                  0x00635e                  _configurarPLL
                  0x006352                  _configurarSistema
                  0x006450                  _control_param
                  0x0053c8                  _convierteAD
                  0x005408                  _enviar_DMA
                  0x0054b4                  _escribir_Eeprom
                  0x002466                  _fputs
                  0x002492                  _fwrite
                  0x00655a                  _generar_A
                  0x0063ec                  _inicializaADC
                  0x006432                  _inicializaDMA
                  0x0063ae                  _inicializaPrioridadInterrupciones
                  0x0066ce                  _inicializaTimer2
                  0x006406                  _inicializaUART
                  0x0024be                  _isxdigit
                  0x005568                  _leer_Eeprom
                  0x003948                  _main
                  0x0024e4                  _memchr
                  0x002544                  _memcpy
                  0x002552                  _memset
                  0x004b4e                  _parametros
                  0x006750                  _pulso_watchdog
                  0x002648                  _putc
                  0x00119c                  _puts
                  0x00670c                  _resetTimer2
                  0x006740                  _reset_tiempoQ
                  0x006192                  _sonido_1
                  0x006256                  _sonido_2
                  0x0027c4                  _strlen
                  0x0011c4                  _strncmp
                  0x002866                  _strtoimax
                  0x00285e                  _strtol
                  0x00284e                  _strtoll
                  0x002856                  _strtoul
                  0x002846                  _strtoull
                  0x002868                  _strtoumax
                  0x00671a                  _tiempo_Q
                  0x00287e                  _tolower
                  0x00288c                  _toupper

Memory Configuration

Name             Origin             Length             Attributes
data             0x000800           0x007800           a !xr
reset            0x000000           0x000004  
ivt              0x000004           0x0000fc  
_reserved        0x000100           0x000004  
aivt             0x000104           0x0000fc  
program          0x000200           0x02aa00           xr
FBS              0xf80000           0x000002  
FSS              0xf80002           0x000002  
FGS              0xf80004           0x000002  
FOSCSEL          0xf80006           0x000002  
FOSC             0xf80008           0x000002  
FWDT             0xf8000a           0x000002  
FPOR             0xf8000c           0x000002  
FICD             0xf8000e           0x000002  
FUID0            0xf80010           0x000002  
FUID1            0xf80012           0x000002  
FUID2            0xf80014           0x000002  
FUID3            0xf80016           0x000002  
*default*        0x000000           0xffffffff  

Linker script and memory map


reserve_data_0x800
                    0x0800         0x20
                    0x0820                  . = 0x20
 *fill*             0x0800         0x2000

reserve_data_0x820
                    0x0820          0x2
                    0x0822                  . = 0x2
 *fill*             0x0820          0x200

reserve_data_0x822
                    0x0822          0x2
                    0x0824                  . = 0x2
 *fill*             0x0822          0x200

reserve_data_0x824
                    0x0824          0x2
                    0x0826                  . = 0x2
 *fill*             0x0824          0x200

reserve_data_0x826
                    0x0826         0x2a
                    0x0850                  . = 0x2a
 *fill*             0x0826         0x2a00
LOAD build/default/debug/configuraciones.o
LOAD build/default/debug/main.o
LOAD build/default/debug/Memoria.o
LOAD build/default/debug/rutinas_genericas.o
LOAD build/default/debug/timer.o
LOAD build/default/debug/i2cEmem.o
LOAD build/default/debug/ctrl_param.o
LOAD build/default/debug/recepcion_serie.o
LOAD build/default/debug/parametrizacion.o
LOAD build/default/debug/pulso_watch.o
LOAD build/default/debug/APQ.o
LOAD build/default/debug/automatico.o
LOAD build/default/debug/manual.o
LOAD build/default/debug/quemador.o
LOAD build/default/debug/molino.o
LOAD build/default/debug/precalentador.o
LOAD build/default/debug/generar_palabra_A.o
LOAD build/default/debug/sonidosAlarma.o
LOAD build/default/debug/tiempo_Quemador.o
                    0x0001                  __MPLAB_BUILD = 0x1
                    0x0001                  __MPLAB_DEBUG = 0x1
                    0x0001                  __DEBUG = 0x1
                    0x0001                  __MPLAB_DEBUGGER_ICD3 = 0x1
LOAD c:/program files/microchip/xc16/v2.10/bin/bin/../../lib/dsPIC33F\libp33FJ256MC710-elf.a
LOAD c:/program files/microchip/xc16/v2.10/bin/bin/../../lib\libfx-elf.a
                    0xf80000                  __FBS = 0xf80000
                    0xf80002                  __FSS = 0xf80002
                    0xf80004                  __FGS = 0xf80004
                    0xf80006                  __FOSCSEL = 0xf80006
                    0xf80008                  __FOSC = 0xf80008
                    0xf8000a                  __FWDT = 0xf8000a
                    0xf8000c                  __FPOR = 0xf8000c
                    0xf8000e                  __FICD = 0xf8000e
                    0xf80010                  __FUID0 = 0xf80010
                    0xf80012                  __FUID1 = 0xf80012
                    0xf80014                  __FUID2 = 0xf80014
                    0xf80016                  __FUID3 = 0xf80016
                    0x0200                  __CODE_BASE = 0x200
                    0x2aa00                  __CODE_LENGTH = 0x2aa00
                    0x0004                  __IVT_BASE = 0x4
                    0x0104                  __AIVT_BASE = 0x104
                    0x0800                  __DATA_BASE = 0x800
                    0x7800                  __DATA_LENGTH = 0x7800
                    0x4800                  __YDATA_BASE = 0x4800
                    0x7800                  __DMA_BASE = 0x7800
                    0x7fff                  __DMA_END = 0x7fff

.reset            0x000000          0x4
                  0x000000          0x2 SHORT 0x200 ABSOLUTE (__reset)
                  0x000001          0x2 SHORT 0x4
                  0x000002          0x2 SHORT 0x0 ((ABSOLUTE (__reset) >> 0x10) & 0x7f)
                  0x000003          0x2 SHORT 0x0

.text             0x000200       0x350c
 *(.init)
 .init            0x000200         0x4c c:/program files/microchip/xc16/v2.10/bin/bin/../../lib\libc99-pic30-elf.a(crt0_standard.o)
                  0x000200                  __resetPRI
                  0x000200                  __reset
                  0x00023c                  __psv_init
 .init            0x00024c         0x7c c:/program files/microchip/xc16/v2.10/bin/bin/../../lib\libc99-pic30-elf.a(data_init_standard.o)
                  0x000252                  __data_init_standard
                  0x000252                  __data_init
 *(.user_init)
 *(.handle)
 .handle          0x0002c8         0x28 jump_table
 *(.isr*)
 .isr.text        0x0002f0          0x8 build/default/debug/configuraciones.o
                  0x0002f0                  __DMA0Interrupt
 .isr.text        0x0002f8        0x3f8 build/default/debug/main.o
                  0x0002f8                  __T2Interrupt
 .isr.text        0x0006f0         0x18 build/default/debug/i2cEmem.o
                  0x0006f0                  __MI2C1Interrupt
                  0x000700                  __SI2C1Interrupt
 .isr.text        0x000708         0x58 build/default/debug/recepcion_serie.o
                  0x000708                  __U1RXInterrupt
 .isr             0x000760          0x4 default_isr
                  0x000760                  __DefaultInterrupt
 *(.libc)
 .libc            0x000764         0x88 c:/program files/microchip/xc16/v2.10/bin/bin/../../lib\libc99-pic30-elf.a(read.Meo)
                  0x000764                  _read
 .libc            0x0007ec         0x12 c:/program files/microchip/xc16/v2.10/bin/bin/../../lib\libc99-pic30-elf.a(close.Meo)
                  0x0007ec                  _close
 .libc            0x0007fe         0x84 c:/program files/microchip/xc16/v2.10/bin/bin/../../lib\libc99-pic30-elf.a(write.Meo)
                  0x0007fe                  _write
 .libc            0x000882         0x2a c:/program files/microchip/xc16/v2.10/bin/bin/../../lib\libc99-pic30-elf.a(sbrk.Meo)
                  0x000882                  _sbrk
 .libc            0x0008ac         0x1a c:/program files/microchip/xc16/v2.10/bin/bin/../../lib\libc99-pic30-elf.a(brk.Meo)
                  0x0008ac                  _brk
 *(.libm)
 *(.libdsp)
 *(.lib*)
 .libperi         0x0008c6          0x6 c:/program files/microchip/xc16/v2.10/bin/bin/../../lib/dsPIC33F\libp33FJ256MC710-elf.a(DataRdyUART1.o)
                  0x0008c6                  _DataRdyUART1
 .libperi         0x0008cc         0x12 c:/program files/microchip/xc16/v2.10/bin/bin/../../lib/dsPIC33F\libp33FJ256MC710-elf.a(ReadUART1.o)
                  0x0008cc                  _ReadUART1
 .libpic30_crt_start_mode
                  0x0008de          0x2 c:/program files/microchip/xc16/v2.10/bin/bin/../../lib\libc99-pic30-elf.a(crt_start_mode_normal.Meo)
                  0x0008de                  __crt_start_mode
                  0x0008de                  __crt_start_mode_normal
 .libm.eqsf2      0x0008e0          0x4 c:/program files/microchip/xc16/v2.10/bin/bin/../../lib\libc99-pic30-elf.a(feqltle.XX_o)
                  0x0008e0                  ___eqsf2
                  0x0008e0                  ___ltsf2
                  0x0008e0                  ___lesf2
 .libm.gtsf2      0x0008e4          0x4 c:/program files/microchip/xc16/v2.10/bin/bin/../../lib\libc99-pic30-elf.a(fgtge.XX_o)
                  0x0008e4                  ___gesf2
                  0x0008e4                  ___gtsf2
 .libm.fixsfsi    0x0008e8         0x42 c:/program files/microchip/xc16/v2.10/bin/bin/../../lib\libc99-pic30-elf.a(fixsfsi.XX_o)
                  0x0008e8                  _(float, int, long long, short, float, short, int)
 .libm.fixunssfsi
                  0x00092a         0x36 c:/program files/microchip/xc16/v2.10/bin/bin/../../lib\libc99-pic30-elf.a(fixunssfsi.XX_o)
                  0x00092a                  ___fixunssfsi
 .libm.floatsisf
                  0x000960          0x6 c:/program files/microchip/xc16/v2.10/bin/bin/../../lib\libc99-pic30-elf.a(floatsisf.XX_o)
                  0x000960                  ___floatsisf
 .libm.floatunsisf
                  0x000966          0x4 c:/program files/microchip/xc16/v2.10/bin/bin/../../lib\libc99-pic30-elf.a(floatunsisf.XX_o)
                  0x000966                  ___floatunsisf
 .libm.funpack    0x00096a         0x2a c:/program files/microchip/xc16/v2.10/bin/bin/../../lib\libc99-pic30-elf.a(funpack.XX_o)
                  0x00096a                  __funpack
 .libmx           0x000994        0x1dc c:/program files/microchip/xc16/v2.10/bin/bin/../../lib\libc99-pic30-elf.a(addsf3x.XX_o)
                  0x000994                  ___subsf3x
                  0x000994                  ___subsf3
                  0x0009a6                  ___addsf3x
                  0x0009a6                  ___addsf3
 .libmx           0x000b70        0x1be c:/program files/microchip/xc16/v2.10/bin/bin/../../lib\libc99-pic30-elf.a(divsf3x.XX_o)
                  0x000b70                  ___divsf3x
                  0x000b70                  ___divsf3
                  0x000d02                  __sdivf
 .libmx           0x000d2e        0x10c c:/program files/microchip/xc16/v2.10/bin/bin/../../lib\libc99-pic30-elf.a(mulsf3x.XX_o)
                  0x000d2e                  ___mulsf3x
                  0x000d2e                  ___mulsf3
 .libmx           0x000e3a         0x54 c:/program files/microchip/xc16/v2.10/bin/bin/../../lib\libc99-pic30-elf.a(dnrmpackfx.XX_o)
                  0x000e3a                  __dnrmpackf
 .libmx           0x000e8e         0x5e c:/program files/microchip/xc16/v2.10/bin/bin/../../lib\libc99-pic30-elf.a(unpackdnrmfx.XX_o)
                  0x000e8e                  __unpackdnrmf
 .libmx           0x000eec         0x34 c:/program files/microchip/xc16/v2.10/bin/bin/../../lib\libc99-pic30-elf.a(typefx.XX_o)
                  0x000eec                  __typef
 .libmx           0x000f20         0x12 c:/program files/microchip/xc16/v2.10/bin/bin/../../lib\libc99-pic30-elf.a(propnanfx.XX_o)
                  0x000f20                  __propnanf
 .libmx           0x000f32         0xa6 c:/program files/microchip/xc16/v2.10/bin/bin/../../lib\libc99-pic30-elf.a(spackfx.XX_o)
                  0x000f32                  __spackf
 .libmx           0x000fd8         0x66 c:/program files/microchip/xc16/v2.10/bin/bin/../../lib\libc99-pic30-elf.a(unpackfx.XX_o)
                  0x000fd8                  __unpackf
 .libm.fcompare
                  0x00103e         0x36 c:/program files/microchip/xc16/v2.10/bin/bin/../../lib\libc99-pic30-elf.a(fcompare.XX_o)
                  0x00103e                  __fcompare
 .libm.floatdisf
                  0x001074         0x20 c:/program files/microchip/xc16/v2.10/bin/bin/../../lib\libc99-pic30-elf.a(floatdisf.XX_o)
                  0x001074                  ___floatdisf
 .libm.floatundisf
                  0x001094         0x5e c:/program files/microchip/xc16/v2.10/bin/bin/../../lib\libc99-pic30-elf.a(floatundisf.XX_o)
                  0x001094                  ___floatundisf
 .libm.fpack      0x0010f2         0x4c c:/program files/microchip/xc16/v2.10/bin/bin/../../lib\libc99-pic30-elf.a(fpack.XX_o)
                  0x0010f2                  __fpack
 .libm.funpack2
                  0x00113e         0x10 c:/program files/microchip/xc16/v2.10/bin/bin/../../lib\libc99-pic30-elf.a(funpack2.XX_o)
                  0x00113e                  __funpack2
 .libc.__wrap_printf
                  0x00114e         0x10 c:/program files/microchip/xc16/v2.10/bin/bin/../../lib\libc99-elf.a(__sio_printf_doux.XX_o)
                  0x00114e                  __printf_cdnopuxX
                  0x00114e                  __dprintf_cdnopuxX
 .libc.__sio_printf_doux
                  0x00115e          0xe c:/program files/microchip/xc16/v2.10/bin/bin/../../lib\libc99-elf.a(__sio_printf_doux.XX_o)
                  0x00115e                  ___sio_printf_doux
 .libc.__wrap_sprintf
                  0x00116c          0xc c:/program files/microchip/xc16/v2.10/bin/bin/../../lib\libc99-elf.a(__sio_sprintf_doux.XX_o)
                  0x00116c                  __sprintf_cdnopuxX
                  0x00116c                  __dsprintf_cdnopuxX
 .libc.__sio_sprintf_doux
                  0x001178          0xe c:/program files/microchip/xc16/v2.10/bin/bin/../../lib\libc99-elf.a(__sio_sprintf_doux.XX_o)
                  0x001178                  ___sio_sprintf_doux
 .libc.__wrap_sscanf
                  0x001186          0xc c:/program files/microchip/xc16/v2.10/bin/bin/../../lib\libc99-elf.a(__sio_sscanf_doux.XX_o)
                  0x001186                  __sscanf_cdnopuxX
                  0x001186                  __dsscanf_cdnopuxX
 .libc.__sio_sscanf_doux
                  0x001192          0xa c:/program files/microchip/xc16/v2.10/bin/bin/../../lib\libc99-elf.a(__sio_sscanf_doux.XX_o)
                  0x001192                  ___sio_sscanf_doux
 .libc.puts       0x00119c         0x1a c:/program files/microchip/xc16/v2.10/bin/bin/../../lib\libc99-elf.a(puts.XX_o)
                  0x00119c                  _puts
 .libc.__dummy0
                  0x0011b6          0x2 c:/program files/microchip/xc16/v2.10/bin/bin/../../lib\libc99-elf.a(stdout.XX_o)
 .libc.__dummy    0x0011b8          0x4 c:/program files/microchip/xc16/v2.10/bin/bin/../../lib\libc99-elf.a(stdout.XX_o)
 .libc.__init_stdout
                  0x0011bc          0x8 c:/program files/microchip/xc16/v2.10/bin/bin/../../lib\libc99-elf.a(stdout.XX_o)
                  0x0011bc                  ___init_stdout
 .libc.strncmp    0x0011c4         0x2a c:/program files/microchip/xc16/v2.10/bin/bin/../../lib\libc99-elf.a(strncmp.XX_o)
                  0x0011c4                  _strncmp
 .libc.__fmt_d    0x0011ee         0xb2 c:/program files/microchip/xc16/v2.10/bin/bin/../../lib\libc99-elf.a(__fmt_d.XX_o)
                  0x0011ee                  ___fmt_d
                  0x0011ee                  ___fmt_d_needed
 .libc.__fmt_o    0x0012a0         0x6a c:/program files/microchip/xc16/v2.10/bin/bin/../../lib\libc99-elf.a(__fmt_o.XX_o)
                  0x0012a0                  ___fmt_o
                  0x0012a0                  ___fmt_o_needed
 .libc.__fmt_s    0x00130a         0x54 c:/program files/microchip/xc16/v2.10/bin/bin/../../lib\libc99-elf.a(__fmt_s.XX_o)
                  0x00130a                  ___fmt_0_needed
                  0x00130a                  ___fmt_s_needed
                  0x00130a                  ___fmt_s
 .libc.__cvt_u    0x00135e         0xa6 c:/program files/microchip/xc16/v2.10/bin/bin/../../lib\libc99-elf.a(__fmt_u.XX_o)
                  0x00135e                  ___cvt_u
 .libc.__fmt_u    0x001404         0x52 c:/program files/microchip/xc16/v2.10/bin/bin/../../lib\libc99-elf.a(__fmt_u.XX_o)
                  0x001404                  ___fmt_u
                  0x001404                  ___fmt_u_needed
 .libc.__fmt_x    0x001456        0x14a c:/program files/microchip/xc16/v2.10/bin/bin/../../lib\libc99-elf.a(__fmt_x.XX_o)
                  0x001456                  ___fmt_x_needed
                  0x001456                  ___fmt_x
 .libc.__vfprintf
                  0x0015a0         0x1c c:/program files/microchip/xc16/v2.10/bin/bin/../../lib\libc99-elf.a(__int_vfprintf.XX_o)
                  0x0015a0                  ___vfprintf
 .libc.__vsprintf
                  0x0015bc          0x8 c:/program files/microchip/xc16/v2.10/bin/bin/../../lib\libc99-elf.a(__int_vsprintf.XX_o)
                  0x0015bc                  ___vsprintf
 .libc.do_read    0x0015c4          0x2 c:/program files/microchip/xc16/v2.10/bin/bin/../../lib\libc99-elf.a(__int_vsscanf.XX_o)
                  0x0015c4                  __int_vsscanf.XX_o:_do_read
 .libc.__vsscanf
                  0x0015c6         0x1c c:/program files/microchip/xc16/v2.10/bin/bin/../../lib\libc99-elf.a(__int_vsscanf.XX_o)
                  0x0015c6                  ___vsscanf
 .libc.__string_out
                  0x0015e2         0x26 c:/program files/microchip/xc16/v2.10/bin/bin/../../lib\libc99-elf.a(__out.XX_o)
 .libc.__fwrite_min
                  0x001608          0x4 c:/program files/microchip/xc16/v2.10/bin/bin/../../lib\libc99-elf.a(__out.XX_o)
                  0x001608                  ___stdio_write
                  0x001608                  ___stdio_write_unbuffered
 .libc.__out      0x00160c         0x10 c:/program files/microchip/xc16/v2.10/bin/bin/../../lib\libc99-elf.a(__out.XX_o)
                  0x00160c                  ___out_needed
                  0x00160c                  ___out
 .libc.__pop_int
                  0x00161c         0xa8 c:/program files/microchip/xc16/v2.10/bin/bin/../../lib\libc99-elf.a(__pop_int.XX_o)
                  0x00161c                  ___pop_int
                  0x00161c                  ___pop_int_needed
 .libc.__pop_ptr
                  0x0016c4         0x70 c:/program files/microchip/xc16/v2.10/bin/bin/../../lib\libc99-elf.a(__pop_ptr.XX_o)
                  0x0016c4                  ___pop_ptr_needed
                  0x0016c4                  ___pop_ptr
 .libc.__string_out
                  0x001734         0x26 c:/program files/microchip/xc16/v2.10/bin/bin/../../lib\libc99-elf.a(__printf_core.XX_o)
 .libc.__pad      0x00175a         0x74 c:/program files/microchip/xc16/v2.10/bin/bin/../../lib\libc99-elf.a(__printf_core.XX_o)
                  0x00175a                  ___pad
 .libc.__dummy_fmt3
                  0x0017ce          0x2 c:/program files/microchip/xc16/v2.10/bin/bin/../../lib\libc99-elf.a(__printf_core.XX_o)
 .libc.__dummy_fmt4
                  0x0017d0          0x2 c:/program files/microchip/xc16/v2.10/bin/bin/../../lib\libc99-elf.a(__printf_core.XX_o)
                  0x0017d0                  ___fmt_fp
                  0x0017d0                  ___fmt_a
 .libc.__dummy_fmts
                  0x0017d2          0x2 c:/program files/microchip/xc16/v2.10/bin/bin/../../lib\libc99-elf.a(__printf_core.XX_o)
 .libc.__fmt_state
                  0x0017d4         0x2c c:/program files/microchip/xc16/v2.10/bin/bin/../../lib\libc99-elf.a(__printf_core.XX_o)
                  0x0017d4                  ___fmt_state
 .libc.vfpfcnvrt.clone.0
                  0x001800        0x2d8 c:/program files/microchip/xc16/v2.10/bin/bin/../../lib\libc99-elf.a(__printf_core.XX_o)
 .libc.__printf_core
                  0x001ad8         0x40 c:/program files/microchip/xc16/v2.10/bin/bin/../../lib\libc99-elf.a(__printf_core.XX_o)
                  0x001ad8                  ___printf_core
 .libc.__scan_d
                  0x001b18         0x2e c:/program files/microchip/xc16/v2.10/bin/bin/../../lib\libc99-elf.a(__scan_d.XX_o)
                  0x001b18                  ___scan_d
                  0x001b18                  ___scan_d_needed
 .libc.__scan_i
                  0x001b46        0x142 c:/program files/microchip/xc16/v2.10/bin/bin/../../lib\libc99-elf.a(__scan_i.XX_o)
                  0x001b46                  ___scan_i_needed
                  0x001b46                  ___scan_i
 .libc.__scan_o
                  0x001c88         0x98 c:/program files/microchip/xc16/v2.10/bin/bin/../../lib\libc99-elf.a(__scan_o.XX_o)
                  0x001c88                  ___scan_o
                  0x001c88                  ___scan_o_needed
 .libc.__isspace
                  0x001d20         0x14 c:/program files/microchip/xc16/v2.10/bin/bin/../../lib\libc99-elf.a(__scan_s.XX_o)
 .libc.__scan_s
                  0x001d34         0x8a c:/program files/microchip/xc16/v2.10/bin/bin/../../lib\libc99-elf.a(__scan_s.XX_o)
                  0x001d34                  ___scan_s_needed
                  0x001d34                  ___scan_s
 .libc.__scan_u
                  0x001dbe         0x2e c:/program files/microchip/xc16/v2.10/bin/bin/../../lib\libc99-elf.a(__scan_u.XX_o)
                  0x001dbe                  ___scan_u_needed
                  0x001dbe                  ___scan_u
 .libc.__scan_x
                  0x001dec         0xdc c:/program files/microchip/xc16/v2.10/bin/bin/../../lib\libc99-elf.a(__scan_x.XX_o)
                  0x001dec                  ___scan_x_needed
                  0x001dec                  ___scan_x
 .libc.__isspace
                  0x001ec8         0x14 c:/program files/microchip/xc16/v2.10/bin/bin/../../lib\libc99-elf.a(__scanf_core.XX_o)
 .libc.__skipws
                  0x001edc         0x3a c:/program files/microchip/xc16/v2.10/bin/bin/../../lib\libc99-elf.a(__scanf_core.XX_o)
                  0x001edc                  ___skipws
 .libc.__consumews
                  0x001f16         0x2c c:/program files/microchip/xc16/v2.10/bin/bin/../../lib\libc99-elf.a(__scanf_core.XX_o)
                  0x001f16                  ___consumews
 .libc.vfsfcnvrt.clone.0
                  0x001f42        0x39e c:/program files/microchip/xc16/v2.10/bin/bin/../../lib\libc99-elf.a(__scanf_core.XX_o)
 .libc.__dummy_scan
                  0x0022e0          0x2 c:/program files/microchip/xc16/v2.10/bin/bin/../../lib\libc99-elf.a(__scanf_core.XX_o)
                  0x0022e0                  ___scan_a
                  0x0022e0                  ___scan_fp
 .libc.__dummy_scan_s
                  0x0022e2          0x2 c:/program files/microchip/xc16/v2.10/bin/bin/../../lib\libc99-elf.a(__scanf_core.XX_o)
 .libc.__scanf_core
                  0x0022e4         0x48 c:/program files/microchip/xc16/v2.10/bin/bin/../../lib\libc99-elf.a(__scanf_core.XX_o)
                  0x0022e4                  ___scanf_core
 .libc.__stdio_close
                  0x00232c         0x3e c:/program files/microchip/xc16/v2.10/bin/bin/../../lib\libc99-elf.a(__stdio_close.XX_o)
                  0x00232c                  ___stdio_close
 .libc.__stdio_close_rw
                  0x00236a         0x58 c:/program files/microchip/xc16/v2.10/bin/bin/../../lib\libc99-elf.a(__stdio_close.XX_o)
                  0x00236a                  ___stdio_close_rw
 .libc.__string_read
                  0x0023c2         0x44 c:/program files/microchip/xc16/v2.10/bin/bin/../../lib\libc99-elf.a(__string_read.XX_o)
                  0x0023c2                  ___string_read
 .libc.__isspace
                  0x002406         0x14 c:/program files/microchip/xc16/v2.10/bin/bin/../../lib\libc99-elf.a(atoi.XX_o)
 .libc.atoi       0x00241a         0x4c c:/program files/microchip/xc16/v2.10/bin/bin/../../lib\libc99-elf.a(atoi.XX_o)
                  0x00241a                  _atoi
 .libc.fputs      0x002466         0x28 c:/program files/microchip/xc16/v2.10/bin/bin/../../lib\libc99-elf.a(fputs.XX_o)
                  0x002466                  _fputs_unlocked
                  0x002466                  _fputs
 .libc.__fwrite_min
                  0x00248e          0x4 c:/program files/microchip/xc16/v2.10/bin/bin/../../lib\libc99-elf.a(fwrite.XX_o)
 .libc.fwrite     0x002492         0x2c c:/program files/microchip/xc16/v2.10/bin/bin/../../lib\libc99-elf.a(fwrite.XX_o)
                  0x002492                  _fwrite
                  0x002492                  _fwrite_unlocked
 .libc.isxdigit
                  0x0024be         0x18 c:/program files/microchip/xc16/v2.10/bin/bin/../../lib\libc99-elf.a(isxdigit.XX_o)
                  0x0024be                  _isxdigit
 .libc.__isxdigit_l
                  0x0024d6          0x2 c:/program files/microchip/xc16/v2.10/bin/bin/../../lib\libc99-elf.a(isxdigit.XX_o)
                  0x0024d6                  _isxdigit_l
                  0x0024d6                  ___isxdigit_l
 .libc.__lseek    0x0024d8          0xc c:/program files/microchip/xc16/v2.10/bin/bin/../../lib\libc99-elf.a(lseek.XX_o)
                  0x0024d8                  _lseek
                  0x0024d8                  ___lseek
 .libc.memchr     0x0024e4         0x60 c:/program files/microchip/xc16/v2.10/bin/bin/../../lib\libc99-elf.a(memchr.XX_o)
                  0x0024e4                  _memchr
 .libc.memcpy     0x002544          0xe c:/program files/microchip/xc16/v2.10/bin/bin/../../lib\libc99-elf.a(memcpy.XX_o)
                  0x002544                  _memcpy
 .libc.memset     0x002552         0xc8 c:/program files/microchip/xc16/v2.10/bin/bin/../../lib\libc99-elf.a(memset.XX_o)
                  0x002552                  _memset
 .libc.__putc_unbuffered
                  0x00261a         0x2e c:/program files/microchip/xc16/v2.10/bin/bin/../../lib\libc99-elf.a(putc.XX_o)
                  0x00261a                  ___putc_unbuffered
 .libc.putc       0x002648          0x2 c:/program files/microchip/xc16/v2.10/bin/bin/../../lib\libc99-elf.a(putc.XX_o)
                  0x002648                  _putc
                  0x002648                  _fputc
                  0x002648                  _putc_unlocked
                  0x002648                  __IO_putc
 .libc.__shlim    0x00264a         0x4a c:/program files/microchip/xc16/v2.10/bin/bin/../../lib\libc99-elf.a(shgetc.XX_o)
                  0x00264a                  ___shlim
 .libc.__shgetc
                  0x002694        0x130 c:/program files/microchip/xc16/v2.10/bin/bin/../../lib\libc99-elf.a(shgetc.XX_o)
                  0x002694                  ___shgetc
 .libc.strlen     0x0027c4         0x30 c:/program files/microchip/xc16/v2.10/bin/bin/../../lib\libc99-elf.a(strlen.XX_o)
                  0x0027c4                  _strlen
 .libc.strtox     0x0027f4         0x52 c:/program files/microchip/xc16/v2.10/bin/bin/../../lib\libc99-elf.a(strtol.XX_o)
 .libc.strtoull
                  0x002846          0x8 c:/program files/microchip/xc16/v2.10/bin/bin/../../lib\libc99-elf.a(strtol.XX_o)
                  0x002846                  ___strtoull_internal
                  0x002846                  _strtoull
 .libc.strtoll    0x00284e          0x8 c:/program files/microchip/xc16/v2.10/bin/bin/../../lib\libc99-elf.a(strtol.XX_o)
                  0x00284e                  _strtoll
                  0x00284e                  ___strtoll_internal
 .libc.strtoul    0x002856          0x8 c:/program files/microchip/xc16/v2.10/bin/bin/../../lib\libc99-elf.a(strtol.XX_o)
                  0x002856                  _strtoul
                  0x002856                  ___strtoul_internal
 .libc.strtol     0x00285e          0x8 c:/program files/microchip/xc16/v2.10/bin/bin/../../lib\libc99-elf.a(strtol.XX_o)
                  0x00285e                  _strtol
                  0x00285e                  ___strtol_internal
 .libc.strtoimax
                  0x002866          0x2 c:/program files/microchip/xc16/v2.10/bin/bin/../../lib\libc99-elf.a(strtol.XX_o)
                  0x002866                  ___strtoimax_internal
                  0x002866                  _strtoimax
 .libc.strtoumax
                  0x002868          0x2 c:/program files/microchip/xc16/v2.10/bin/bin/../../lib\libc99-elf.a(strtol.XX_o)
                  0x002868                  _strtoumax
                  0x002868                  ___strtoumax_internal
 .libc.__syscall_ret
                  0x00286a         0x14 c:/program files/microchip/xc16/v2.10/bin/bin/../../lib\libc99-elf.a(syscall_ret.XX_o)
                  0x00286a                  ___syscall_ret
 .libc.tolower    0x00287e          0xc c:/program files/microchip/xc16/v2.10/bin/bin/../../lib\libc99-elf.a(tolower.XX_o)
                  0x00287e                  _tolower
 .libc.__tolower_l
                  0x00288a          0x2 c:/program files/microchip/xc16/v2.10/bin/bin/../../lib\libc99-elf.a(tolower.XX_o)
                  0x00288a                  ___tolower_l
                  0x00288a                  _tolower_l
 .libc.toupper    0x00288c          0xc c:/program files/microchip/xc16/v2.10/bin/bin/../../lib\libc99-elf.a(toupper.XX_o)
                  0x00288c                  _toupper
 .libc.__toupper_l
                  0x002898          0x2 c:/program files/microchip/xc16/v2.10/bin/bin/../../lib\libc99-elf.a(toupper.XX_o)
                  0x002898                  ___toupper_l
                  0x002898                  _toupper_l
 .libc.__dummy    0x00289a          0x2 c:/program files/microchip/xc16/v2.10/bin/bin/../../lib\libc99-elf.a(__init_stdio.XX_o)
                  0x00289a                  ___init_stderr
                  0x00289a                  ___init_stdin
 .libc.__init_stdio
                  0x00289c          0x6 c:/program files/microchip/xc16/v2.10/bin/bin/../../lib\libc99-elf.a(__init_stdio.XX_o)
                  0x00289c                  ___init_stdio
                  0x00289c                  ___init_stdio_needed
 .libc.__vfscanf
                  0x0028a2         0x1c c:/program files/microchip/xc16/v2.10/bin/bin/../../lib\libc99-elf.a(__int_vfscanf.XX_o)
                  0x0028a2                  ___vfscanf
 .libc.__vsnprintf
                  0x0028be         0x4a c:/program files/microchip/xc16/v2.10/bin/bin/../../lib\libc99-elf.a(__int_vsnprintf.XX_o)
                  0x0028be                  ___vsnprintf
 .libc.__pop_float
                  0x002908         0x3e c:/program files/microchip/xc16/v2.10/bin/bin/../../lib\libc99-elf.a(__pop_float.XX_o)
                  0x002908                  ___pop_float
                  0x002908                  ___pop_float_needed
 .libc.__push_float
                  0x002946         0x3e c:/program files/microchip/xc16/v2.10/bin/bin/../../lib\libc99-elf.a(__push_float.XX_o)
                  0x002946                  ___push_float
                  0x002946                  ___push_float_needed
 .libc.__push_int
                  0x002984         0x72 c:/program files/microchip/xc16/v2.10/bin/bin/../../lib\libc99-elf.a(__push_int.XX_o)
                  0x002984                  ___push_int
                  0x002984                  ___push_int_needed
 .libc.__read_int
                  0x0029f6         0x8a c:/program files/microchip/xc16/v2.10/bin/bin/../../lib\libc99-elf.a(__read_int.XX_o)
                  0x0029f6                  ___read_int
 .libc.__towrite_rw
                  0x002a80         0x1c c:/program files/microchip/xc16/v2.10/bin/bin/../../lib\libc99-elf.a(__towrite_rw.XX_o)
                  0x002a80                  ___towrite_rw
                  0x002a80                  ___towrite_rw_needed
 .libc.__uflow    0x002a9c         0x2a c:/program files/microchip/xc16/v2.10/bin/bin/../../lib\libc99-elf.a(__uflow.XX_o)
                  0x002a9c                  ___uflow
 .libc.__isspace
                  0x002ac6         0x14 c:/program files/microchip/xc16/v2.10/bin/bin/../../lib\libc99-elf.a(intscan.XX_o)
 .libc.__intscan
                  0x002ada        0x432 c:/program files/microchip/xc16/v2.10/bin/bin/../../lib\libc99-elf.a(intscan.XX_o)
                  0x002ada                  ___intscan
 .libc.__fopen_rw
                  0x002f0c         0x38 c:/program files/microchip/xc16/v2.10/bin/bin/../../lib\libc99-elf.a(__fopen_rw.XX_o)
                  0x002f0c                  ___fopen_rw
                  0x002f0c                  ___fopen_rw_needed
 .libc.__ftello_adj_rw
                  0x002f44         0x36 c:/program files/microchip/xc16/v2.10/bin/bin/../../lib\libc99-elf.a(__ftello_rw.XX_o)
                  0x002f44                  ___ftello_adj_rw
                  0x002f44                  ___ftello_adj_rw_needed
 .libc.__putc     0x002f7a         0x32 c:/program files/microchip/xc16/v2.10/bin/bin/../../lib\libc99-elf.a(__putc.XX_o)
                  0x002f7a                  ___putc_needed
                  0x002f7a                  ___putc
 .libc.__dummy    0x002fac          0x2 c:/program files/microchip/xc16/v2.10/bin/bin/../../lib\libc99-elf.a(__stderr.XX_o)
 .libc.__get_stderr
                  0x002fae          0x4 c:/program files/microchip/xc16/v2.10/bin/bin/../../lib\libc99-elf.a(__stderr.XX_o)
                  0x002fae                  ___get_stderr
                  0x002fae                  ___init_stderr_needed
 .libc.__dummy    0x002fb2          0x2 c:/program files/microchip/xc16/v2.10/bin/bin/../../lib\libc99-elf.a(__stdio_exit.XX_o)
                  0x002fb2                  ___stdio_exit_ofl
 .libc.__dummy1
                  0x002fb4          0x2 c:/program files/microchip/xc16/v2.10/bin/bin/../../lib\libc99-elf.a(__stdio_exit.XX_o)
 .libc.__stdio_exit
                  0x002fb6         0x14 c:/program files/microchip/xc16/v2.10/bin/bin/../../lib\libc99-elf.a(__stdio_exit.XX_o)
                  0x002fb6                  ___stdio_exit_needed
                  0x002fb6                  ___stdio_exit
 .libc.__stdio_read
                  0x002fca         0x6a c:/program files/microchip/xc16/v2.10/bin/bin/../../lib\libc99-elf.a(__stdio_read.XX_o)
                  0x002fca                  ___stdio_read
 .libc.__stdio_seek_unbuffered
                  0x003034         0x2a c:/program files/microchip/xc16/v2.10/bin/bin/../../lib\libc99-elf.a(__stdio_seek.XX_o)
                  0x003034                  ___stdio_seek_needed
                  0x003034                  ___stdio_seek_unbuffered
 .libc.__stdio_seek
                  0x00305e         0x50 c:/program files/microchip/xc16/v2.10/bin/bin/../../lib\libc99-elf.a(__stdio_seek.XX_o)
                  0x00305e                  ___stdio_seek
 .libc.__stdio_seek_rw
                  0x0030ae         0x82 c:/program files/microchip/xc16/v2.10/bin/bin/../../lib\libc99-elf.a(__stdio_seek.XX_o)
                  0x0030ae                  ___stdio_seek_rw
 .libc.__dummy    0x003130          0x2 c:/program files/microchip/xc16/v2.10/bin/bin/../../lib\libc99-elf.a(__stdout.XX_o)
 .libc.__get_stdout
                  0x003132          0x4 c:/program files/microchip/xc16/v2.10/bin/bin/../../lib\libc99-elf.a(__stdout.XX_o)
                  0x003132                  ___get_stdout
                  0x003132                  ___init_stdout_needed
 .libc.__toread
                  0x003136         0x48 c:/program files/microchip/xc16/v2.10/bin/bin/../../lib\libc99-elf.a(__toread.XX_o)
                  0x003136                  ___toread
 .libc.__toread_needs_stdio_exit
                  0x00317e          0x2 c:/program files/microchip/xc16/v2.10/bin/bin/../../lib\libc99-elf.a(__toread.XX_o)
                  0x00317e                  ___toread_needs_stdio_exit
 .libc.__simple_malloc
                  0x003180         0x86 c:/program files/microchip/xc16/v2.10/bin/bin/../../lib\libc99-elf.a(lite_malloc.XX_o)
                  0x003180                  ___malloc0
                  0x003180                  _malloc
                  0x003180                  ___simple_malloc
 .libc.__readv    0x003206         0x2e c:/program files/microchip/xc16/v2.10/bin/bin/../../lib\libc99-elf.a(readv.XX_o)
                  0x003206                  _readv
 .libc.__fclose
                  0x003234         0x14 c:/program files/microchip/xc16/v2.10/bin/bin/../../lib\libc99-elf.a(__fclose.XX_o)
                  0x003234                  ___fclose_needed
                  0x003234                  ___fclose
 .libc.__dummy    0x003248          0x6 c:/program files/microchip/xc16/v2.10/bin/bin/../../lib\libc99-elf.a(__fopen.XX_o)
 .libc.__fopen_std
                  0x00324e         0x26 c:/program files/microchip/xc16/v2.10/bin/bin/../../lib\libc99-elf.a(__fopen.XX_o)
 .libc.__fopen    0x003274          0x2 c:/program files/microchip/xc16/v2.10/bin/bin/../../lib\libc99-elf.a(__fopen.XX_o)
                  0x003274                  ___fopen
                  0x003274                  ___fopen_needed
 .libc.__fseeko
                  0x003276          0x4 c:/program files/microchip/xc16/v2.10/bin/bin/../../lib\libc99-elf.a(__fseeko.XX_o)
                  0x003276                  ___fseeko_unlocked
                  0x003276                  _fseeko
                  0x003276                  ___fseeko
                  0x003276                  ___fseeko_needed
 .libc.__dummy    0x00327a         0x20 c:/program files/microchip/xc16/v2.10/bin/bin/../../lib\libc99-elf.a(__ftello.XX_o)
 .libc.__ftello_adj
                  0x00329a          0x2 c:/program files/microchip/xc16/v2.10/bin/bin/../../lib\libc99-elf.a(__ftello.XX_o)
                  0x00329a                  ___ftello_adj_needed
                  0x00329a                  ___ftello_adj
 .libc.__fwrite
                  0x00329c          0xc c:/program files/microchip/xc16/v2.10/bin/bin/../../lib\libc99-elf.a(__fwrite.XX_o)
                  0x00329c                  ___fwrite
                  0x00329c                  ___fwrite_needed
 .libc.__overflow
                  0x0032a8         0x50 c:/program files/microchip/xc16/v2.10/bin/bin/../../lib\libc99-elf.a(__overflow.XX_o)
                  0x0032a8                  ___overflow
 .libc.__dummy    0x0032f8          0x2 c:/program files/microchip/xc16/v2.10/bin/bin/../../lib\libc99-elf.a(__towrite.XX_o)
 .libc.__towrite
                  0x0032fa         0x1c c:/program files/microchip/xc16/v2.10/bin/bin/../../lib\libc99-elf.a(__towrite.XX_o)
                  0x0032fa                  ___towrite
 .libc.__expand_heap
                  0x003316         0x14 c:/program files/microchip/xc16/v2.10/bin/bin/../../lib\libc99-elf.a(expand_heap.XX_o)
                  0x003316                  ___expand_heap
 .libc.doread     0x00332a          0x4 c:/program files/microchip/xc16/v2.10/bin/bin/../../lib\libc99-pic30-elf.a(read.Meo)
 .libc.doclose    0x00332e          0x4 c:/program files/microchip/xc16/v2.10/bin/bin/../../lib\libc99-pic30-elf.a(close.Meo)
 .libc.dowrite    0x003332          0x4 c:/program files/microchip/xc16/v2.10/bin/bin/../../lib\libc99-pic30-elf.a(write.Meo)
 .libm.extendsfdf2
                  0x003336         0x3e c:/program files/microchip/xc16/v2.10/bin/bin/../../lib\libc99-pic30-elf.a(extendsfdf.XX_o)
                  0x003336                  ___extendsfdf2
 .libm.truncdfsf2
                  0x003374         0x56 c:/program files/microchip/xc16/v2.10/bin/bin/../../lib\libc99-pic30-elf.a(truncdfsf.XX_o)
                  0x003374                  ___truncdfsf2
 .libm.mulsi3     0x0033ca          0xc c:/program files/microchip/xc16/v2.10/bin/bin/../../lib\libc99-pic30-elf.a(mulsi3.XX_o)
                  0x0033ca                  ___mulp32peds3
                  0x0033ca                  ___mulsi3
                  0x0033ca                  ___mulp32eds3
 .libm.__PplusBdi
                  0x0033d6         0x26 c:/program files/microchip/xc16/v2.10/bin/bin/../../lib\libc99-pic30-elf.a(divmoddi3.XX_o)
 .libm.__PminusBdi
                  0x0033fc         0x26 c:/program files/microchip/xc16/v2.10/bin/bin/../../lib\libc99-pic30-elf.a(divmoddi3.XX_o)
 .libm.__udivmoddi3
                  0x003422         0xe6 c:/program files/microchip/xc16/v2.10/bin/bin/../../lib\libc99-pic30-elf.a(divmoddi3.XX_o)
                  0x003422                  ___udivmoddi3
 .libm.__udivdi3
                  0x003508          0xe c:/program files/microchip/xc16/v2.10/bin/bin/../../lib\libc99-pic30-elf.a(divmoddi3.XX_o)
                  0x003508                  ___udivdi3
 .libm.__umoddi3
                  0x003516          0x8 c:/program files/microchip/xc16/v2.10/bin/bin/../../lib\libc99-pic30-elf.a(divmoddi3.XX_o)
                  0x003516                  ___umoddi3
 .libm.__divdi3
                  0x00351e         0x60 c:/program files/microchip/xc16/v2.10/bin/bin/../../lib\libc99-pic30-elf.a(divmoddi3.XX_o)
                  0x00351e                  ___divdi3
 .libm.__moddi3
                  0x00357e         0x5c c:/program files/microchip/xc16/v2.10/bin/bin/../../lib\libc99-pic30-elf.a(divmoddi3.XX_o)
                  0x00357e                  ___moddi3
 .libm.__muldi3
                  0x0035da         0x52 c:/program files/microchip/xc16/v2.10/bin/bin/../../lib\libc99-pic30-elf.a(muldi3.XX_o)
                  0x0035da                  ___muldi3
 .libm.dunpack    0x00362c         0x4e c:/program files/microchip/xc16/v2.10/bin/bin/../../lib\libc99-pic30-elf.a(dunpack.XX_o)
                  0x00362c                  __dunpack
 .libm.dunpack2
                  0x00367a         0x32 c:/program files/microchip/xc16/v2.10/bin/bin/../../lib\libc99-pic30-elf.a(dunpack2.XX_o)
                  0x00367a                  __dunpack2
                  0x00369c                  __dreturnNaN
                  0x0036a2                  __dunpack2exit
 .libm.umuldi3    0x0036ac         0x44 c:/program files/microchip/xc16/v2.10/bin/bin/../../lib\libc99-pic30-elf.a(umuldi3.XX_o)
                  0x0036ac                  ___umuldi3
 .libm.dPropagateNaN
                  0x0036f0         0x1c c:/program files/microchip/xc16/v2.10/bin/bin/../../lib\libc99-pic30-elf.a(dpropagateNaN.XX_o)
                  0x0036f0                  __dPropagateNaN

usercode
 *(usercode)

__FBS             0xf80000          0x2
 *(__FBS.sec*)
 __FBS.sec        0xf80000          0x2 /CW/_FBS@
                  0xf80000                  __FBS.sec

__FSS             0xf80002          0x2
 *(__FSS.sec*)
 __FSS.sec        0xf80002          0x2 /CW/_FSSp!
                  0xf80002                  __FSS.sec

__FGS             0xf80004          0x2
 *(__FGS.sec*)
 __FGS.sec        0xf80004          0x2 /CW/_FGS
                  0xf80004                  __FGS.sec

__FOSCSEL
 *(__FOSCSEL.sec*)

__FOSC
 *(__FOSC.sec*)

__FWDT
 *(__FWDT.sec*)

__FPOR
 *(__FPOR.sec*)

__FICD
 *(__FICD.sec*)

__FUID0
 *(__FUID0.sec*)

__FUID1
 *(__FUID1.sec*)

__FUID2
 *(__FUID2.sec*)

__FUID3
 *(__FUID3.sec*)

.comment
 *(.comment)

.debug_info       0x000000       0xa86b
 *(.debug_info)
 .debug_info      0x000000       0x197d build/default/debug/configuraciones.o
 .debug_info      0x00197d       0x208b build/default/debug/main.o
 .debug_info      0x003a08        0xde0 build/default/debug/rutinas_genericas.o
 .debug_info      0x0047e8        0x7d8 build/default/debug/timer.o
 .debug_info      0x004fc0        0xb5f build/default/debug/i2cEmem.o
 .debug_info      0x005b1f        0x6ea build/default/debug/ctrl_param.o
 .debug_info      0x006209        0x36c build/default/debug/recepcion_serie.o
 .debug_info      0x006575        0x701 build/default/debug/parametrizacion.o
 .debug_info      0x006c76        0x469 build/default/debug/pulso_watch.o
 .debug_info      0x0070df        0x519 build/default/debug/APQ.o
 .debug_info      0x0075f8         0xd9 build/default/debug/automatico.o
 .debug_info      0x0076d1        0x359 build/default/debug/manual.o
 .debug_info      0x007a2a        0x686 build/default/debug/quemador.o
 .debug_info      0x0080b0        0x82d build/default/debug/molino.o
 .debug_info      0x0088dd        0x605 build/default/debug/precalentador.o
 .debug_info      0x008ee2        0x420 build/default/debug/generar_palabra_A.o
 .debug_info      0x009302        0x31f build/default/debug/sonidosAlarma.o
 .debug_info      0x009621        0x22c build/default/debug/tiempo_Quemador.o
 .debug_info      0x00984d         0x8d c:/program files/microchip/xc16/v2.10/bin/bin/../../lib\libc99-pic30-elf.a(feqltle.XX_o)
 .debug_info      0x0098da         0x8b c:/program files/microchip/xc16/v2.10/bin/bin/../../lib\libc99-pic30-elf.a(fgtge.XX_o)
 .debug_info      0x009965         0x8d c:/program files/microchip/xc16/v2.10/bin/bin/../../lib\libc99-pic30-elf.a(fixsfsi.XX_o)
 .debug_info      0x0099f2         0x90 c:/program files/microchip/xc16/v2.10/bin/bin/../../lib\libc99-pic30-elf.a(fixunssfsi.XX_o)
 .debug_info      0x009a82         0x8f c:/program files/microchip/xc16/v2.10/bin/bin/../../lib\libc99-pic30-elf.a(floatsisf.XX_o)
 .debug_info      0x009b11         0x91 c:/program files/microchip/xc16/v2.10/bin/bin/../../lib\libc99-pic30-elf.a(floatunsisf.XX_o)
 .debug_info      0x009ba2         0x8d c:/program files/microchip/xc16/v2.10/bin/bin/../../lib\libc99-pic30-elf.a(funpack.XX_o)
 .debug_info      0x009c2f         0x9d c:/program files/microchip/xc16/v2.10/bin/bin/../../lib\libc99-pic30-elf.a(addsf3x.XX_o)
 .debug_info      0x009ccc         0x9d c:/program files/microchip/xc16/v2.10/bin/bin/../../lib\libc99-pic30-elf.a(divsf3x.XX_o)
 .debug_info      0x009d69         0x9d c:/program files/microchip/xc16/v2.10/bin/bin/../../lib\libc99-pic30-elf.a(mulsf3x.XX_o)
 .debug_info      0x009e06         0xa0 c:/program files/microchip/xc16/v2.10/bin/bin/../../lib\libc99-pic30-elf.a(dnrmpackfx.XX_o)
 .debug_info      0x009ea6         0xa2 c:/program files/microchip/xc16/v2.10/bin/bin/../../lib\libc99-pic30-elf.a(unpackdnrmfx.XX_o)
 .debug_info      0x009f48         0x9c c:/program files/microchip/xc16/v2.10/bin/bin/../../lib\libc99-pic30-elf.a(typefx.XX_o)
 .debug_info      0x009fe4         0x9f c:/program files/microchip/xc16/v2.10/bin/bin/../../lib\libc99-pic30-elf.a(propnanfx.XX_o)
 .debug_info      0x00a083         0x9d c:/program files/microchip/xc16/v2.10/bin/bin/../../lib\libc99-pic30-elf.a(spackfx.XX_o)
 .debug_info      0x00a120         0x9e c:/program files/microchip/xc16/v2.10/bin/bin/../../lib\libc99-pic30-elf.a(unpackfx.XX_o)
 .debug_info      0x00a1be         0x8e c:/program files/microchip/xc16/v2.10/bin/bin/../../lib\libc99-pic30-elf.a(fcompare.XX_o)
 .debug_info      0x00a24c         0x8f c:/program files/microchip/xc16/v2.10/bin/bin/../../lib\libc99-pic30-elf.a(floatdisf.XX_o)
 .debug_info      0x00a2db         0x91 c:/program files/microchip/xc16/v2.10/bin/bin/../../lib\libc99-pic30-elf.a(floatundisf.XX_o)
 .debug_info      0x00a36c         0x8b c:/program files/microchip/xc16/v2.10/bin/bin/../../lib\libc99-pic30-elf.a(fpack.XX_o)
 .debug_info      0x00a3f7         0x8e c:/program files/microchip/xc16/v2.10/bin/bin/../../lib\libc99-pic30-elf.a(funpack2.XX_o)
 .debug_info      0x00a485         0x90 c:/program files/microchip/xc16/v2.10/bin/bin/../../lib\libc99-pic30-elf.a(extendsfdf.XX_o)
 .debug_info      0x00a515         0x8f c:/program files/microchip/xc16/v2.10/bin/bin/../../lib\libc99-pic30-elf.a(truncdfsf.XX_o)
 .debug_info      0x00a5a4         0x8c c:/program files/microchip/xc16/v2.10/bin/bin/../../lib\libc99-pic30-elf.a(mulsi3.XX_o)
 .debug_info      0x00a630         0x8d c:/program files/microchip/xc16/v2.10/bin/bin/../../lib\libc99-pic30-elf.a(dunpack.XX_o)
 .debug_info      0x00a6bd         0x8e c:/program files/microchip/xc16/v2.10/bin/bin/../../lib\libc99-pic30-elf.a(dunpack2.XX_o)
 .debug_info      0x00a74b         0x8d c:/program files/microchip/xc16/v2.10/bin/bin/../../lib\libc99-pic30-elf.a(umuldi3.XX_o)
 .debug_info      0x00a7d8         0x93 c:/program files/microchip/xc16/v2.10/bin/bin/../../lib\libc99-pic30-elf.a(dpropagateNaN.XX_o)
 *(.gnu.linkonce.wi.*)

.debug_abbrev     0x000000       0x1019
 *(.debug_abbrev)
 .debug_abbrev    0x000000        0x129 build/default/debug/configuraciones.o
 .debug_abbrev    0x000129        0x17b build/default/debug/main.o
 .debug_abbrev    0x0002a4          0x1 build/default/debug/Memoria.o
 .debug_abbrev    0x0002a5        0x188 build/default/debug/rutinas_genericas.o
 .debug_abbrev    0x00042d         0xc5 build/default/debug/timer.o
 .debug_abbrev    0x0004f2        0x158 build/default/debug/i2cEmem.o
 .debug_abbrev    0x00064a         0x79 build/default/debug/ctrl_param.o
 .debug_abbrev    0x0006c3         0xbe build/default/debug/recepcion_serie.o
 .debug_abbrev    0x000781         0x68 build/default/debug/parametrizacion.o
 .debug_abbrev    0x0007e9         0x9b build/default/debug/pulso_watch.o
 .debug_abbrev    0x000884         0xbb build/default/debug/APQ.o
 .debug_abbrev    0x00093f         0x27 build/default/debug/automatico.o
 .debug_abbrev    0x000966         0xac build/default/debug/manual.o
 .debug_abbrev    0x000a12         0xcf build/default/debug/quemador.o
 .debug_abbrev    0x000ae1         0xcf build/default/debug/molino.o
 .debug_abbrev    0x000bb0         0xcf build/default/debug/precalentador.o
 .debug_abbrev    0x000c7f         0x79 build/default/debug/generar_palabra_A.o
 .debug_abbrev    0x000cf8         0x9b build/default/debug/sonidosAlarma.o
 .debug_abbrev    0x000d93         0x56 build/default/debug/tiempo_Quemador.o
 .debug_abbrev    0x000de9         0x14 c:/program files/microchip/xc16/v2.10/bin/bin/../../lib\libc99-pic30-elf.a(feqltle.XX_o)
 .debug_abbrev    0x000dfd         0x14 c:/program files/microchip/xc16/v2.10/bin/bin/../../lib\libc99-pic30-elf.a(fgtge.XX_o)
 .debug_abbrev    0x000e11         0x14 c:/program files/microchip/xc16/v2.10/bin/bin/../../lib\libc99-pic30-elf.a(fixsfsi.XX_o)
 .debug_abbrev    0x000e25         0x14 c:/program files/microchip/xc16/v2.10/bin/bin/../../lib\libc99-pic30-elf.a(fixunssfsi.XX_o)
 .debug_abbrev    0x000e39         0x14 c:/program files/microchip/xc16/v2.10/bin/bin/../../lib\libc99-pic30-elf.a(floatsisf.XX_o)
 .debug_abbrev    0x000e4d         0x14 c:/program files/microchip/xc16/v2.10/bin/bin/../../lib\libc99-pic30-elf.a(floatunsisf.XX_o)
 .debug_abbrev    0x000e61         0x14 c:/program files/microchip/xc16/v2.10/bin/bin/../../lib\libc99-pic30-elf.a(funpack.XX_o)
 .debug_abbrev    0x000e75         0x14 c:/program files/microchip/xc16/v2.10/bin/bin/../../lib\libc99-pic30-elf.a(addsf3x.XX_o)
 .debug_abbrev    0x000e89         0x14 c:/program files/microchip/xc16/v2.10/bin/bin/../../lib\libc99-pic30-elf.a(divsf3x.XX_o)
 .debug_abbrev    0x000e9d         0x14 c:/program files/microchip/xc16/v2.10/bin/bin/../../lib\libc99-pic30-elf.a(mulsf3x.XX_o)
 .debug_abbrev    0x000eb1         0x14 c:/program files/microchip/xc16/v2.10/bin/bin/../../lib\libc99-pic30-elf.a(dnrmpackfx.XX_o)
 .debug_abbrev    0x000ec5         0x14 c:/program files/microchip/xc16/v2.10/bin/bin/../../lib\libc99-pic30-elf.a(unpackdnrmfx.XX_o)
 .debug_abbrev    0x000ed9         0x14 c:/program files/microchip/xc16/v2.10/bin/bin/../../lib\libc99-pic30-elf.a(typefx.XX_o)
 .debug_abbrev    0x000eed         0x14 c:/program files/microchip/xc16/v2.10/bin/bin/../../lib\libc99-pic30-elf.a(propnanfx.XX_o)
 .debug_abbrev    0x000f01         0x14 c:/program files/microchip/xc16/v2.10/bin/bin/../../lib\libc99-pic30-elf.a(spackfx.XX_o)
 .debug_abbrev    0x000f15         0x14 c:/program files/microchip/xc16/v2.10/bin/bin/../../lib\libc99-pic30-elf.a(unpackfx.XX_o)
 .debug_abbrev    0x000f29         0x14 c:/program files/microchip/xc16/v2.10/bin/bin/../../lib\libc99-pic30-elf.a(fcompare.XX_o)
 .debug_abbrev    0x000f3d         0x14 c:/program files/microchip/xc16/v2.10/bin/bin/../../lib\libc99-pic30-elf.a(floatdisf.XX_o)
 .debug_abbrev    0x000f51         0x14 c:/program files/microchip/xc16/v2.10/bin/bin/../../lib\libc99-pic30-elf.a(floatundisf.XX_o)
 .debug_abbrev    0x000f65         0x14 c:/program files/microchip/xc16/v2.10/bin/bin/../../lib\libc99-pic30-elf.a(fpack.XX_o)
 .debug_abbrev    0x000f79         0x14 c:/program files/microchip/xc16/v2.10/bin/bin/../../lib\libc99-pic30-elf.a(funpack2.XX_o)
 .debug_abbrev    0x000f8d         0x14 c:/program files/microchip/xc16/v2.10/bin/bin/../../lib\libc99-pic30-elf.a(extendsfdf.XX_o)
 .debug_abbrev    0x000fa1         0x14 c:/program files/microchip/xc16/v2.10/bin/bin/../../lib\libc99-pic30-elf.a(truncdfsf.XX_o)
 .debug_abbrev    0x000fb5         0x14 c:/program files/microchip/xc16/v2.10/bin/bin/../../lib\libc99-pic30-elf.a(mulsi3.XX_o)
 .debug_abbrev    0x000fc9         0x14 c:/program files/microchip/xc16/v2.10/bin/bin/../../lib\libc99-pic30-elf.a(dunpack.XX_o)
 .debug_abbrev    0x000fdd         0x14 c:/program files/microchip/xc16/v2.10/bin/bin/../../lib\libc99-pic30-elf.a(dunpack2.XX_o)
 .debug_abbrev    0x000ff1         0x14 c:/program files/microchip/xc16/v2.10/bin/bin/../../lib\libc99-pic30-elf.a(umuldi3.XX_o)
 .debug_abbrev    0x001005         0x14 c:/program files/microchip/xc16/v2.10/bin/bin/../../lib\libc99-pic30-elf.a(dpropagateNaN.XX_o)

.debug_line       0x000000       0x20b1
 *(.debug_line)
 .debug_line      0x000000        0x15e build/default/debug/configuraciones.o
 .debug_line      0x00015e        0x3ca build/default/debug/main.o
 .debug_line      0x000528         0x1a build/default/debug/Memoria.o
 .debug_line      0x000542        0x176 build/default/debug/rutinas_genericas.o
 .debug_line      0x0006b8        0x10b build/default/debug/timer.o
 .debug_line      0x0007c3        0x1d9 build/default/debug/i2cEmem.o
 .debug_line      0x00099c         0x6e build/default/debug/ctrl_param.o
 .debug_line      0x000a0a        0x109 build/default/debug/recepcion_serie.o
 .debug_line      0x000b13         0x8c build/default/debug/parametrizacion.o
 .debug_line      0x000b9f        0x101 build/default/debug/pulso_watch.o
 .debug_line      0x000ca0        0x114 build/default/debug/APQ.o
 .debug_line      0x000db4         0x38 build/default/debug/automatico.o
 .debug_line      0x000dec        0x10b build/default/debug/manual.o
 .debug_line      0x000ef7        0x16e build/default/debug/quemador.o
 .debug_line      0x001065        0x183 build/default/debug/molino.o
 .debug_line      0x0011e8        0x162 build/default/debug/precalentador.o
 .debug_line      0x00134a         0x4d build/default/debug/generar_palabra_A.o
 .debug_line      0x001397        0x129 build/default/debug/sonidosAlarma.o
 .debug_line      0x0014c0         0x4b build/default/debug/tiempo_Quemador.o
 .debug_line      0x00150b         0x37 c:/program files/microchip/xc16/v2.10/bin/bin/../../lib\libc99-pic30-elf.a(feqltle.XX_o)
 .debug_line      0x001542         0x35 c:/program files/microchip/xc16/v2.10/bin/bin/../../lib\libc99-pic30-elf.a(fgtge.XX_o)
 .debug_line      0x001577         0x56 c:/program files/microchip/xc16/v2.10/bin/bin/../../lib\libc99-pic30-elf.a(fixsfsi.XX_o)
 .debug_line      0x0015cd         0x53 c:/program files/microchip/xc16/v2.10/bin/bin/../../lib\libc99-pic30-elf.a(fixunssfsi.XX_o)
 .debug_line      0x001620         0x3a c:/program files/microchip/xc16/v2.10/bin/bin/../../lib\libc99-pic30-elf.a(floatsisf.XX_o)
 .debug_line      0x00165a         0x3b c:/program files/microchip/xc16/v2.10/bin/bin/../../lib\libc99-pic30-elf.a(floatunsisf.XX_o)
 .debug_line      0x001695         0x4a c:/program files/microchip/xc16/v2.10/bin/bin/../../lib\libc99-pic30-elf.a(funpack.XX_o)
 .debug_line      0x0016df        0x136 c:/program files/microchip/xc16/v2.10/bin/bin/../../lib\libc99-pic30-elf.a(addsf3x.XX_o)
 .debug_line      0x001815        0x124 c:/program files/microchip/xc16/v2.10/bin/bin/../../lib\libc99-pic30-elf.a(divsf3x.XX_o)
 .debug_line      0x001939         0xcc c:/program files/microchip/xc16/v2.10/bin/bin/../../lib\libc99-pic30-elf.a(mulsf3x.XX_o)
 .debug_line      0x001a05         0x72 c:/program files/microchip/xc16/v2.10/bin/bin/../../lib\libc99-pic30-elf.a(dnrmpackfx.XX_o)
 .debug_line      0x001a77         0x7a c:/program files/microchip/xc16/v2.10/bin/bin/../../lib\libc99-pic30-elf.a(unpackdnrmfx.XX_o)
 .debug_line      0x001af1         0x5e c:/program files/microchip/xc16/v2.10/bin/bin/../../lib\libc99-pic30-elf.a(typefx.XX_o)
 .debug_line      0x001b4f         0x51 c:/program files/microchip/xc16/v2.10/bin/bin/../../lib\libc99-pic30-elf.a(propnanfx.XX_o)
 .debug_line      0x001ba0         0x98 c:/program files/microchip/xc16/v2.10/bin/bin/../../lib\libc99-pic30-elf.a(spackfx.XX_o)
 .debug_line      0x001c38         0x79 c:/program files/microchip/xc16/v2.10/bin/bin/../../lib\libc99-pic30-elf.a(unpackfx.XX_o)
 .debug_line      0x001cb1         0x1a c:/program files/microchip/xc16/v2.10/bin/bin/../../lib\libc99-pic30-elf.a(errno.XX_o)
 .debug_line      0x001ccb         0x53 c:/program files/microchip/xc16/v2.10/bin/bin/../../lib\libc99-pic30-elf.a(fcompare.XX_o)
 .debug_line      0x001d1e         0x47 c:/program files/microchip/xc16/v2.10/bin/bin/../../lib\libc99-pic30-elf.a(floatdisf.XX_o)
 .debug_line      0x001d65         0x6c c:/program files/microchip/xc16/v2.10/bin/bin/../../lib\libc99-pic30-elf.a(floatundisf.XX_o)
 .debug_line      0x001dd1         0x5a c:/program files/microchip/xc16/v2.10/bin/bin/../../lib\libc99-pic30-elf.a(fpack.XX_o)
 .debug_line      0x001e2b         0x3e c:/program files/microchip/xc16/v2.10/bin/bin/../../lib\libc99-pic30-elf.a(funpack2.XX_o)
 .debug_line      0x001e69         0x59 c:/program files/microchip/xc16/v2.10/bin/bin/../../lib\libc99-pic30-elf.a(extendsfdf.XX_o)
 .debug_line      0x001ec2         0x66 c:/program files/microchip/xc16/v2.10/bin/bin/../../lib\libc99-pic30-elf.a(truncdfsf.XX_o)
 .debug_line      0x001f28         0x3a c:/program files/microchip/xc16/v2.10/bin/bin/../../lib\libc99-pic30-elf.a(mulsi3.XX_o)
 .debug_line      0x001f62         0x5c c:/program files/microchip/xc16/v2.10/bin/bin/../../lib\libc99-pic30-elf.a(dunpack.XX_o)
 .debug_line      0x001fbe         0x53 c:/program files/microchip/xc16/v2.10/bin/bin/../../lib\libc99-pic30-elf.a(dunpack2.XX_o)
 .debug_line      0x002011         0x57 c:/program files/microchip/xc16/v2.10/bin/bin/../../lib\libc99-pic30-elf.a(umuldi3.XX_o)
 .debug_line      0x002068         0x49 c:/program files/microchip/xc16/v2.10/bin/bin/../../lib\libc99-pic30-elf.a(dpropagateNaN.XX_o)

.debug_frame      0x000000        0x73e
 *(.debug_frame)
 .debug_frame     0x000000         0xfe build/default/debug/configuraciones.o
 .debug_frame     0x0000fe         0xca build/default/debug/main.o
 .debug_frame     0x0001c8         0xca build/default/debug/rutinas_genericas.o
 .debug_frame     0x000292         0x7c build/default/debug/timer.o
 .debug_frame     0x00030e         0x86 build/default/debug/i2cEmem.o
 .debug_frame     0x000394         0x2e build/default/debug/ctrl_param.o
 .debug_frame     0x0003c2         0x5c build/default/debug/recepcion_serie.o
 .debug_frame     0x00041e         0x80 build/default/debug/parametrizacion.o
 .debug_frame     0x00049e         0x2e build/default/debug/pulso_watch.o
 .debug_frame     0x0004cc         0x36 build/default/debug/APQ.o
 .debug_frame     0x000502         0x2e build/default/debug/automatico.o
 .debug_frame     0x000530         0x2e build/default/debug/manual.o
 .debug_frame     0x00055e         0x4a build/default/debug/quemador.o
 .debug_frame     0x0005a8         0x74 build/default/debug/molino.o
 .debug_frame     0x00061c         0x4a build/default/debug/precalentador.o
 .debug_frame     0x000666         0x48 build/default/debug/generar_palabra_A.o
 .debug_frame     0x0006ae         0x48 build/default/debug/sonidosAlarma.o
 .debug_frame     0x0006f6         0x48 build/default/debug/tiempo_Quemador.o

.debug_str        0x000000        0x6ed
 *(.debug_str)
 .debug_str       0x000000         0x93 build/default/debug/configuraciones.o
 .debug_str       0x000093        0x2bb build/default/debug/main.o
 .debug_str       0x00034e         0x5d build/default/debug/rutinas_genericas.o
 .debug_str       0x0003ab         0x25 build/default/debug/timer.o
 .debug_str       0x0003d0         0x34 build/default/debug/i2cEmem.o
 .debug_str       0x000404          0x9 build/default/debug/ctrl_param.o
 .debug_str       0x00040d          0x9 build/default/debug/recepcion_serie.o
 .debug_str       0x000416         0x29 build/default/debug/parametrizacion.o
 .debug_str       0x00043f         0x12 build/default/debug/pulso_watch.o
 .debug_str       0x000451         0x12 build/default/debug/APQ.o
 .debug_str       0x000463         0x5b build/default/debug/manual.o
 .debug_str       0x0004be         0xc0 build/default/debug/quemador.o
 .debug_str       0x00057e         0xb2 build/default/debug/molino.o
 .debug_str       0x000630         0x8d build/default/debug/precalentador.o
 .debug_str       0x0006bd         0x17 build/default/debug/generar_palabra_A.o
 .debug_str       0x0006d4          0x9 build/default/debug/sonidosAlarma.o
 .debug_str       0x0006dd         0x10 build/default/debug/tiempo_Quemador.o

.debug_loc
 *(.debug_loc)

.debug_macinfo
 *(.debug_macinfo)

.debug_pubnames
                  0x000000        0xc91
 *(.debug_pubnames)
 .debug_pubnames
                  0x000000         0xd8 build/default/debug/configuraciones.o
 .debug_pubnames
                  0x0000d8        0x8a1 build/default/debug/main.o
 .debug_pubnames
                  0x000979         0x85 build/default/debug/rutinas_genericas.o
 .debug_pubnames
                  0x0009fe         0x56 build/default/debug/timer.o
 .debug_pubnames
                  0x000a54         0x63 build/default/debug/i2cEmem.o
 .debug_pubnames
                  0x000ab7         0x24 build/default/debug/ctrl_param.o
 .debug_pubnames
                  0x000adb         0x25 build/default/debug/recepcion_serie.o
 .debug_pubnames
                  0x000b00         0x21 build/default/debug/parametrizacion.o
 .debug_pubnames
                  0x000b21         0x25 build/default/debug/pulso_watch.o
 .debug_pubnames
                  0x000b46         0x1a build/default/debug/APQ.o
 .debug_pubnames
                  0x000b60         0x21 build/default/debug/automatico.o
 .debug_pubnames
                  0x000b81         0x1d build/default/debug/manual.o
 .debug_pubnames
                  0x000b9e         0x1f build/default/debug/quemador.o
 .debug_pubnames
                  0x000bbd         0x33 build/default/debug/molino.o
 .debug_pubnames
                  0x000bf0         0x24 build/default/debug/precalentador.o
 .debug_pubnames
                  0x000c14         0x20 build/default/debug/generar_palabra_A.o
 .debug_pubnames
                  0x000c34         0x2c build/default/debug/sonidosAlarma.o
 .debug_pubnames
                  0x000c60         0x31 build/default/debug/tiempo_Quemador.o

.debug_ranges
 *(.debug_ranges)

.debug_aranges    0x000000        0x530
 *(.debug_aranges)
 .debug_aranges
                  0x000000         0x18 build/default/debug/configuraciones.o
 .debug_aranges
                  0x000018         0x18 build/default/debug/main.o
 .debug_aranges
                  0x000030         0x18 build/default/debug/rutinas_genericas.o
 .debug_aranges
                  0x000048         0x18 build/default/debug/timer.o
 .debug_aranges
                  0x000060         0x18 build/default/debug/i2cEmem.o
 .debug_aranges
                  0x000078         0x18 build/default/debug/ctrl_param.o
 .debug_aranges
                  0x000090         0x18 build/default/debug/recepcion_serie.o
 .debug_aranges
                  0x0000a8         0x18 build/default/debug/parametrizacion.o
 .debug_aranges
                  0x0000c0         0x18 build/default/debug/pulso_watch.o
 .debug_aranges
                  0x0000d8         0x18 build/default/debug/APQ.o
 .debug_aranges
                  0x0000f0         0x18 build/default/debug/automatico.o
 .debug_aranges
                  0x000108         0x18 build/default/debug/manual.o
 .debug_aranges
                  0x000120         0x18 build/default/debug/quemador.o
 .debug_aranges
                  0x000138         0x18 build/default/debug/molino.o
 .debug_aranges
                  0x000150         0x18 build/default/debug/precalentador.o
 .debug_aranges
                  0x000168         0x18 build/default/debug/generar_palabra_A.o
 .debug_aranges
                  0x000180         0x18 build/default/debug/sonidosAlarma.o
 .debug_aranges
                  0x000198         0x18 build/default/debug/tiempo_Quemador.o
 .debug_aranges
                  0x0001b0         0x20 c:/program files/microchip/xc16/v2.10/bin/bin/../../lib\libc99-pic30-elf.a(feqltle.XX_o)
 .debug_aranges
                  0x0001d0         0x20 c:/program files/microchip/xc16/v2.10/bin/bin/../../lib\libc99-pic30-elf.a(fgtge.XX_o)
 .debug_aranges
                  0x0001f0         0x20 c:/program files/microchip/xc16/v2.10/bin/bin/../../lib\libc99-pic30-elf.a(fixsfsi.XX_o)
 .debug_aranges
                  0x000210         0x20 c:/program files/microchip/xc16/v2.10/bin/bin/../../lib\libc99-pic30-elf.a(fixunssfsi.XX_o)
 .debug_aranges
                  0x000230         0x20 c:/program files/microchip/xc16/v2.10/bin/bin/../../lib\libc99-pic30-elf.a(floatsisf.XX_o)
 .debug_aranges
                  0x000250         0x20 c:/program files/microchip/xc16/v2.10/bin/bin/../../lib\libc99-pic30-elf.a(floatunsisf.XX_o)
 .debug_aranges
                  0x000270         0x20 c:/program files/microchip/xc16/v2.10/bin/bin/../../lib\libc99-pic30-elf.a(funpack.XX_o)
 .debug_aranges
                  0x000290         0x20 c:/program files/microchip/xc16/v2.10/bin/bin/../../lib\libc99-pic30-elf.a(addsf3x.XX_o)
 .debug_aranges
                  0x0002b0         0x20 c:/program files/microchip/xc16/v2.10/bin/bin/../../lib\libc99-pic30-elf.a(divsf3x.XX_o)
 .debug_aranges
                  0x0002d0         0x20 c:/program files/microchip/xc16/v2.10/bin/bin/../../lib\libc99-pic30-elf.a(mulsf3x.XX_o)
 .debug_aranges
                  0x0002f0         0x20 c:/program files/microchip/xc16/v2.10/bin/bin/../../lib\libc99-pic30-elf.a(dnrmpackfx.XX_o)
 .debug_aranges
                  0x000310         0x20 c:/program files/microchip/xc16/v2.10/bin/bin/../../lib\libc99-pic30-elf.a(unpackdnrmfx.XX_o)
 .debug_aranges
                  0x000330         0x20 c:/program files/microchip/xc16/v2.10/bin/bin/../../lib\libc99-pic30-elf.a(typefx.XX_o)
 .debug_aranges
                  0x000350         0x20 c:/program files/microchip/xc16/v2.10/bin/bin/../../lib\libc99-pic30-elf.a(propnanfx.XX_o)
 .debug_aranges
                  0x000370         0x20 c:/program files/microchip/xc16/v2.10/bin/bin/../../lib\libc99-pic30-elf.a(spackfx.XX_o)
 .debug_aranges
                  0x000390         0x20 c:/program files/microchip/xc16/v2.10/bin/bin/../../lib\libc99-pic30-elf.a(unpackfx.XX_o)
 .debug_aranges
                  0x0003b0         0x20 c:/program files/microchip/xc16/v2.10/bin/bin/../../lib\libc99-pic30-elf.a(fcompare.XX_o)
 .debug_aranges
                  0x0003d0         0x20 c:/program files/microchip/xc16/v2.10/bin/bin/../../lib\libc99-pic30-elf.a(floatdisf.XX_o)
 .debug_aranges
                  0x0003f0         0x20 c:/program files/microchip/xc16/v2.10/bin/bin/../../lib\libc99-pic30-elf.a(floatundisf.XX_o)
 .debug_aranges
                  0x000410         0x20 c:/program files/microchip/xc16/v2.10/bin/bin/../../lib\libc99-pic30-elf.a(fpack.XX_o)
 .debug_aranges
                  0x000430         0x20 c:/program files/microchip/xc16/v2.10/bin/bin/../../lib\libc99-pic30-elf.a(funpack2.XX_o)
 .debug_aranges
                  0x000450         0x20 c:/program files/microchip/xc16/v2.10/bin/bin/../../lib\libc99-pic30-elf.a(extendsfdf.XX_o)
 .debug_aranges
                  0x000470         0x20 c:/program files/microchip/xc16/v2.10/bin/bin/../../lib\libc99-pic30-elf.a(truncdfsf.XX_o)
 .debug_aranges
                  0x000490         0x20 c:/program files/microchip/xc16/v2.10/bin/bin/../../lib\libc99-pic30-elf.a(mulsi3.XX_o)
 .debug_aranges
                  0x0004b0         0x20 c:/program files/microchip/xc16/v2.10/bin/bin/../../lib\libc99-pic30-elf.a(dunpack.XX_o)
 .debug_aranges
                  0x0004d0         0x20 c:/program files/microchip/xc16/v2.10/bin/bin/../../lib\libc99-pic30-elf.a(dunpack2.XX_o)
 .debug_aranges
                  0x0004f0         0x20 c:/program files/microchip/xc16/v2.10/bin/bin/../../lib\libc99-pic30-elf.a(umuldi3.XX_o)
 .debug_aranges
                  0x000510         0x20 c:/program files/microchip/xc16/v2.10/bin/bin/../../lib\libc99-pic30-elf.a(dpropagateNaN.XX_o)
                    0x0000                  WREG0 = 0x0
                    0x0000                  _WREG0 = 0x0
                    0x0002                  WREG1 = 0x2
                    0x0002                  _WREG1 = 0x2
                    0x0004                  WREG2 = 0x4
                    0x0004                  _WREG2 = 0x4
                    0x0006                  WREG3 = 0x6
                    0x0006                  _WREG3 = 0x6
                    0x0008                  WREG4 = 0x8
                    0x0008                  _WREG4 = 0x8
                    0x000a                  WREG5 = 0xa
                    0x000a                  _WREG5 = 0xa
                    0x000c                  WREG6 = 0xc
                    0x000c                  _WREG6 = 0xc
                    0x000e                  WREG7 = 0xe
                    0x000e                  _WREG7 = 0xe
                    0x0010                  WREG8 = 0x10
                    0x0010                  _WREG8 = 0x10
                    0x0012                  WREG9 = 0x12
                    0x0012                  _WREG9 = 0x12
                    0x0014                  WREG10 = 0x14
                    0x0014                  _WREG10 = 0x14
                    0x0016                  WREG11 = 0x16
                    0x0016                  _WREG11 = 0x16
                    0x0018                  WREG12 = 0x18
                    0x0018                  _WREG12 = 0x18
                    0x001a                  WREG13 = 0x1a
                    0x001a                  _WREG13 = 0x1a
                    0x001c                  WREG14 = 0x1c
                    0x001c                  _WREG14 = 0x1c
                    0x001e                  WREG15 = 0x1e
                    0x001e                  _WREG15 = 0x1e
                    0x0020                  SPLIM = 0x20
                    0x0020                  _SPLIM = 0x20
                    0x0022                  ACCAL = 0x22
                    0x0022                  _ACCAL = 0x22
                    0x0024                  ACCAH = 0x24
                    0x0024                  _ACCAH = 0x24
                    0x0026                  ACCAU = 0x26
                    0x0026                  _ACCAU = 0x26
                    0x0028                  ACCBL = 0x28
                    0x0028                  _ACCBL = 0x28
                    0x002a                  ACCBH = 0x2a
                    0x002a                  _ACCBH = 0x2a
                    0x002c                  ACCBU = 0x2c
                    0x002c                  _ACCBU = 0x2c
                    0x002e                  PCL = 0x2e
                    0x002e                  _PCL = 0x2e
                    0x0030                  PCH = 0x30
                    0x0030                  _PCH = 0x30
                    0x0032                  TBLPAG = 0x32
                    0x0032                  _TBLPAG = 0x32
                    0x0034                  PSVPAG = 0x34
                    0x0034                  _PSVPAG = 0x34
                    0x0036                  RCOUNT = 0x36
                    0x0036                  _RCOUNT = 0x36
                    0x0038                  DCOUNT = 0x38
                    0x0038                  _DCOUNT = 0x38
                    0x003a                  DOSTARTL = 0x3a
                    0x003a                  _DOSTARTL = 0x3a
                    0x003c                  DOSTARTH = 0x3c
                    0x003c                  _DOSTARTH = 0x3c
                    0x003e                  DOENDL = 0x3e
                    0x003e                  _DOENDL = 0x3e
                    0x0040                  DOENDH = 0x40
                    0x0040                  _DOENDH = 0x40
                    0x0042                  SR = 0x42
                    0x0042                  _SR = 0x42
                    0x0042                  _SRbits = 0x42
                    0x0044                  CORCON = 0x44
                    0x0044                  _CORCON = 0x44
                    0x0044                  _CORCONbits = 0x44
                    0x0046                  MODCON = 0x46
                    0x0046                  _MODCON = 0x46
                    0x0046                  _MODCONbits = 0x46
                    0x0048                  XMODSRT = 0x48
                    0x0048                  _XMODSRT = 0x48
                    0x004a                  XMODEND = 0x4a
                    0x004a                  _XMODEND = 0x4a
                    0x004c                  YMODSRT = 0x4c
                    0x004c                  _YMODSRT = 0x4c
                    0x004e                  YMODEND = 0x4e
                    0x004e                  _YMODEND = 0x4e
                    0x0050                  XBREV = 0x50
                    0x0050                  _XBREV = 0x50
                    0x0050                  _XBREVbits = 0x50
                    0x0052                  DISICNT = 0x52
                    0x0052                  _DISICNT = 0x52
                    0x0060                  CNEN1 = 0x60
                    0x0060                  _CNEN1 = 0x60
                    0x0060                  _CNEN1bits = 0x60
                    0x0062                  CNEN2 = 0x62
                    0x0062                  _CNEN2 = 0x62
                    0x0062                  _CNEN2bits = 0x62
                    0x0068                  CNPU1 = 0x68
                    0x0068                  _CNPU1 = 0x68
                    0x0068                  _CNPU1bits = 0x68
                    0x006a                  CNPU2 = 0x6a
                    0x006a                  _CNPU2 = 0x6a
                    0x006a                  _CNPU2bits = 0x6a
                    0x0080                  INTCON1 = 0x80
                    0x0080                  _INTCON1 = 0x80
                    0x0080                  _INTCON1bits = 0x80
                    0x0082                  INTCON2 = 0x82
                    0x0082                  _INTCON2 = 0x82
                    0x0082                  _INTCON2bits = 0x82
                    0x0084                  IFS0 = 0x84
                    0x0084                  _IFS0 = 0x84
                    0x0084                  _IFS0bits = 0x84
                    0x0086                  IFS1 = 0x86
                    0x0086                  _IFS1 = 0x86
                    0x0086                  _IFS1bits = 0x86
                    0x0088                  IFS2 = 0x88
                    0x0088                  _IFS2 = 0x88
                    0x0088                  _IFS2bits = 0x88
                    0x008a                  IFS3 = 0x8a
                    0x008a                  _IFS3 = 0x8a
                    0x008a                  _IFS3bits = 0x8a
                    0x008c                  IFS4 = 0x8c
                    0x008c                  _IFS4 = 0x8c
                    0x008c                  _IFS4bits = 0x8c
                    0x0094                  IEC0 = 0x94
                    0x0094                  _IEC0 = 0x94
                    0x0094                  _IEC0bits = 0x94
                    0x0096                  IEC1 = 0x96
                    0x0096                  _IEC1 = 0x96
                    0x0096                  _IEC1bits = 0x96
                    0x0098                  IEC2 = 0x98
                    0x0098                  _IEC2 = 0x98
                    0x0098                  _IEC2bits = 0x98
                    0x009a                  IEC3 = 0x9a
                    0x009a                  _IEC3 = 0x9a
                    0x009a                  _IEC3bits = 0x9a
                    0x009c                  IEC4 = 0x9c
                    0x009c                  _IEC4 = 0x9c
                    0x009c                  _IEC4bits = 0x9c
                    0x00a4                  IPC0 = 0xa4
                    0x00a4                  _IPC0 = 0xa4
                    0x00a4                  _IPC0bits = 0xa4
                    0x00a6                  IPC1 = 0xa6
                    0x00a6                  _IPC1 = 0xa6
                    0x00a6                  _IPC1bits = 0xa6
                    0x00a8                  IPC2 = 0xa8
                    0x00a8                  _IPC2 = 0xa8
                    0x00a8                  _IPC2bits = 0xa8
                    0x00aa                  IPC3 = 0xaa
                    0x00aa                  _IPC3 = 0xaa
                    0x00aa                  _IPC3bits = 0xaa
                    0x00ac                  IPC4 = 0xac
                    0x00ac                  _IPC4 = 0xac
                    0x00ac                  _IPC4bits = 0xac
                    0x00ae                  IPC5 = 0xae
                    0x00ae                  _IPC5 = 0xae
                    0x00ae                  _IPC5bits = 0xae
                    0x00b0                  IPC6 = 0xb0
                    0x00b0                  _IPC6 = 0xb0
                    0x00b0                  _IPC6bits = 0xb0
                    0x00b2                  IPC7 = 0xb2
                    0x00b2                  _IPC7 = 0xb2
                    0x00b2                  _IPC7bits = 0xb2
                    0x00b4                  IPC8 = 0xb4
                    0x00b4                  _IPC8 = 0xb4
                    0x00b4                  _IPC8bits = 0xb4
                    0x00b6                  IPC9 = 0xb6
                    0x00b6                  _IPC9 = 0xb6
                    0x00b6                  _IPC9bits = 0xb6
                    0x00b8                  IPC10 = 0xb8
                    0x00b8                  _IPC10 = 0xb8
                    0x00b8                  _IPC10bits = 0xb8
                    0x00ba                  IPC11 = 0xba
                    0x00ba                  _IPC11 = 0xba
                    0x00ba                  _IPC11bits = 0xba
                    0x00bc                  IPC12 = 0xbc
                    0x00bc                  _IPC12 = 0xbc
                    0x00bc                  _IPC12bits = 0xbc
                    0x00be                  IPC13 = 0xbe
                    0x00be                  _IPC13 = 0xbe
                    0x00be                  _IPC13bits = 0xbe
                    0x00c0                  IPC14 = 0xc0
                    0x00c0                  _IPC14 = 0xc0
                    0x00c0                  _IPC14bits = 0xc0
                    0x00c2                  IPC15 = 0xc2
                    0x00c2                  _IPC15 = 0xc2
                    0x00c2                  _IPC15bits = 0xc2
                    0x00c4                  IPC16 = 0xc4
                    0x00c4                  _IPC16 = 0xc4
                    0x00c4                  _IPC16bits = 0xc4
                    0x00c6                  IPC17 = 0xc6
                    0x00c6                  _IPC17 = 0xc6
                    0x00c6                  _IPC17bits = 0xc6
                    0x00e0                  INTTREG = 0xe0
                    0x00e0                  _INTTREG = 0xe0
                    0x00e0                  _INTTREGbits = 0xe0
                    0x0100                  TMR1 = 0x100
                    0x0100                  _TMR1 = 0x100
                    0x0102                  PR1 = 0x102
                    0x0102                  _PR1 = 0x102
                    0x0104                  T1CON = 0x104
                    0x0104                  _T1CON = 0x104
                    0x0104                  _T1CONbits = 0x104
                    0x0106                  TMR2 = 0x106
                    0x0106                  _TMR2 = 0x106
                    0x0108                  TMR3HLD = 0x108
                    0x0108                  _TMR3HLD = 0x108
                    0x010a                  TMR3 = 0x10a
                    0x010a                  _TMR3 = 0x10a
                    0x010c                  PR2 = 0x10c
                    0x010c                  _PR2 = 0x10c
                    0x010e                  PR3 = 0x10e
                    0x010e                  _PR3 = 0x10e
                    0x0110                  T2CON = 0x110
                    0x0110                  _T2CON = 0x110
                    0x0110                  _T2CONbits = 0x110
                    0x0112                  T3CON = 0x112
                    0x0112                  _T3CON = 0x112
                    0x0112                  _T3CONbits = 0x112
                    0x0114                  TMR4 = 0x114
                    0x0114                  _TMR4 = 0x114
                    0x0116                  TMR5HLD = 0x116
                    0x0116                  _TMR5HLD = 0x116
                    0x0118                  TMR5 = 0x118
                    0x0118                  _TMR5 = 0x118
                    0x011a                  PR4 = 0x11a
                    0x011a                  _PR4 = 0x11a
                    0x011c                  PR5 = 0x11c
                    0x011c                  _PR5 = 0x11c
                    0x011e                  T4CON = 0x11e
                    0x011e                  _T4CON = 0x11e
                    0x011e                  _T4CONbits = 0x11e
                    0x0120                  T5CON = 0x120
                    0x0120                  _T5CON = 0x120
                    0x0120                  _T5CONbits = 0x120
                    0x0122                  TMR6 = 0x122
                    0x0122                  _TMR6 = 0x122
                    0x0124                  TMR7HLD = 0x124
                    0x0124                  _TMR7HLD = 0x124
                    0x0126                  TMR7 = 0x126
                    0x0126                  _TMR7 = 0x126
                    0x0128                  PR6 = 0x128
                    0x0128                  _PR6 = 0x128
                    0x012a                  PR7 = 0x12a
                    0x012a                  _PR7 = 0x12a
                    0x012c                  T6CON = 0x12c
                    0x012c                  _T6CON = 0x12c
                    0x012c                  _T6CONbits = 0x12c
                    0x012e                  T7CON = 0x12e
                    0x012e                  _T7CON = 0x12e
                    0x012e                  _T7CONbits = 0x12e
                    0x0130                  TMR8 = 0x130
                    0x0130                  _TMR8 = 0x130
                    0x0132                  TMR9HLD = 0x132
                    0x0132                  _TMR9HLD = 0x132
                    0x0134                  TMR9 = 0x134
                    0x0134                  _TMR9 = 0x134
                    0x0136                  PR8 = 0x136
                    0x0136                  _PR8 = 0x136
                    0x0138                  PR9 = 0x138
                    0x0138                  _PR9 = 0x138
                    0x013a                  T8CON = 0x13a
                    0x013a                  _T8CON = 0x13a
                    0x013a                  _T8CONbits = 0x13a
                    0x013c                  T9CON = 0x13c
                    0x013c                  _T9CON = 0x13c
                    0x013c                  _T9CONbits = 0x13c
                    0x0140                  IC1BUF = 0x140
                    0x0140                  _IC1BUF = 0x140
                    0x0142                  IC1CON = 0x142
                    0x0142                  _IC1CON = 0x142
                    0x0142                  _IC1CONbits = 0x142
                    0x0144                  IC2BUF = 0x144
                    0x0144                  _IC2BUF = 0x144
                    0x0146                  IC2CON = 0x146
                    0x0146                  _IC2CON = 0x146
                    0x0146                  _IC2CONbits = 0x146
                    0x0148                  IC3BUF = 0x148
                    0x0148                  _IC3BUF = 0x148
                    0x014a                  IC3CON = 0x14a
                    0x014a                  _IC3CON = 0x14a
                    0x014a                  _IC3CONbits = 0x14a
                    0x014c                  IC4BUF = 0x14c
                    0x014c                  _IC4BUF = 0x14c
                    0x014e                  IC4CON = 0x14e
                    0x014e                  _IC4CON = 0x14e
                    0x014e                  _IC4CONbits = 0x14e
                    0x0150                  IC5BUF = 0x150
                    0x0150                  _IC5BUF = 0x150
                    0x0152                  IC5CON = 0x152
                    0x0152                  _IC5CON = 0x152
                    0x0152                  _IC5CONbits = 0x152
                    0x0154                  IC6BUF = 0x154
                    0x0154                  _IC6BUF = 0x154
                    0x0156                  IC6CON = 0x156
                    0x0156                  _IC6CON = 0x156
                    0x0156                  _IC6CONbits = 0x156
                    0x0158                  IC7BUF = 0x158
                    0x0158                  _IC7BUF = 0x158
                    0x015a                  IC7CON = 0x15a
                    0x015a                  _IC7CON = 0x15a
                    0x015a                  _IC7CONbits = 0x15a
                    0x015c                  IC8BUF = 0x15c
                    0x015c                  _IC8BUF = 0x15c
                    0x015e                  IC8CON = 0x15e
                    0x015e                  _IC8CON = 0x15e
                    0x015e                  _IC8CONbits = 0x15e
                    0x0180                  OC1RS = 0x180
                    0x0180                  _OC1RS = 0x180
                    0x0182                  OC1R = 0x182
                    0x0182                  _OC1R = 0x182
                    0x0184                  OC1CON = 0x184
                    0x0184                  _OC1CON = 0x184
                    0x0184                  _OC1CONbits = 0x184
                    0x0186                  OC2RS = 0x186
                    0x0186                  _OC2RS = 0x186
                    0x0188                  OC2R = 0x188
                    0x0188                  _OC2R = 0x188
                    0x018a                  OC2CON = 0x18a
                    0x018a                  _OC2CON = 0x18a
                    0x018a                  _OC2CONbits = 0x18a
                    0x018c                  OC3RS = 0x18c
                    0x018c                  _OC3RS = 0x18c
                    0x018e                  OC3R = 0x18e
                    0x018e                  _OC3R = 0x18e
                    0x0190                  OC3CON = 0x190
                    0x0190                  _OC3CON = 0x190
                    0x0190                  _OC3CONbits = 0x190
                    0x0192                  OC4RS = 0x192
                    0x0192                  _OC4RS = 0x192
                    0x0194                  OC4R = 0x194
                    0x0194                  _OC4R = 0x194
                    0x0196                  OC4CON = 0x196
                    0x0196                  _OC4CON = 0x196
                    0x0196                  _OC4CONbits = 0x196
                    0x0198                  OC5RS = 0x198
                    0x0198                  _OC5RS = 0x198
                    0x019a                  OC5R = 0x19a
                    0x019a                  _OC5R = 0x19a
                    0x019c                  OC5CON = 0x19c
                    0x019c                  _OC5CON = 0x19c
                    0x019c                  _OC5CONbits = 0x19c
                    0x019e                  OC6RS = 0x19e
                    0x019e                  _OC6RS = 0x19e
                    0x01a0                  OC6R = 0x1a0
                    0x01a0                  _OC6R = 0x1a0
                    0x01a2                  OC6CON = 0x1a2
                    0x01a2                  _OC6CON = 0x1a2
                    0x01a2                  _OC6CONbits = 0x1a2
                    0x01a4                  OC7RS = 0x1a4
                    0x01a4                  _OC7RS = 0x1a4
                    0x01a6                  OC7R = 0x1a6
                    0x01a6                  _OC7R = 0x1a6
                    0x01a8                  OC7CON = 0x1a8
                    0x01a8                  _OC7CON = 0x1a8
                    0x01a8                  _OC7CONbits = 0x1a8
                    0x01aa                  OC8RS = 0x1aa
                    0x01aa                  _OC8RS = 0x1aa
                    0x01ac                  OC8R = 0x1ac
                    0x01ac                  _OC8R = 0x1ac
                    0x01ae                  OC8CON = 0x1ae
                    0x01ae                  _OC8CON = 0x1ae
                    0x01ae                  _OC8CONbits = 0x1ae
                    0x01c0                  P1TCON = 0x1c0
                    0x01c0                  _P1TCON = 0x1c0
                    0x01c0                  _P1TCONbits = 0x1c0
                    0x01c0                  PTCON = 0x1c0
                    0x01c0                  _PTCON = 0x1c0
                    0x01c0                  _PTCONbits = 0x1c0
                    0x01c2                  P1TMR = 0x1c2
                    0x01c2                  _P1TMR = 0x1c2
                    0x01c2                  _P1TMRbits = 0x1c2
                    0x01c2                  PTMR = 0x1c2
                    0x01c2                  _PTMR = 0x1c2
                    0x01c2                  _PTMRbits = 0x1c2
                    0x01c4                  P1TPER = 0x1c4
                    0x01c4                  _P1TPER = 0x1c4
                    0x01c4                  _P1TPERbits = 0x1c4
                    0x01c4                  PTPER = 0x1c4
                    0x01c4                  _PTPER = 0x1c4
                    0x01c4                  _PTPERbits = 0x1c4
                    0x01c6                  P1SECMP = 0x1c6
                    0x01c6                  _P1SECMP = 0x1c6
                    0x01c6                  _P1SECMPbits = 0x1c6
                    0x01c6                  SEVTCMP = 0x1c6
                    0x01c6                  _SEVTCMP = 0x1c6
                    0x01c6                  _SEVTCMPbits = 0x1c6
                    0x01c8                  PWM1CON1 = 0x1c8
                    0x01c8                  _PWM1CON1 = 0x1c8
                    0x01c8                  _PWM1CON1bits = 0x1c8
                    0x01c8                  PWMCON1 = 0x1c8
                    0x01c8                  _PWMCON1 = 0x1c8
                    0x01c8                  _PWMCON1bits = 0x1c8
                    0x01ca                  PWM1CON2 = 0x1ca
                    0x01ca                  _PWM1CON2 = 0x1ca
                    0x01ca                  _PWM1CON2bits = 0x1ca
                    0x01ca                  PWMCON2 = 0x1ca
                    0x01ca                  _PWMCON2 = 0x1ca
                    0x01ca                  _PWMCON2bits = 0x1ca
                    0x01cc                  DTCON1 = 0x1cc
                    0x01cc                  _DTCON1 = 0x1cc
                    0x01cc                  _DTCON1bits = 0x1cc
                    0x01cc                  P1DTCON1 = 0x1cc
                    0x01cc                  _P1DTCON1 = 0x1cc
                    0x01cc                  _P1DTCON1bits = 0x1cc
                    0x01ce                  DTCON2 = 0x1ce
                    0x01ce                  _DTCON2 = 0x1ce
                    0x01ce                  _DTCON2bits = 0x1ce
                    0x01ce                  P1DTCON2 = 0x1ce
                    0x01ce                  _P1DTCON2 = 0x1ce
                    0x01ce                  _P1DTCON2bits = 0x1ce
                    0x01d0                  FLTACON = 0x1d0
                    0x01d0                  _FLTACON = 0x1d0
                    0x01d0                  _FLTACONbits = 0x1d0
                    0x01d0                  P1FLTACON = 0x1d0
                    0x01d0                  _P1FLTACON = 0x1d0
                    0x01d0                  _P1FLTACONbits = 0x1d0
                    0x01d2                  FLTBCON = 0x1d2
                    0x01d2                  _FLTBCON = 0x1d2
                    0x01d2                  _FLTBCONbits = 0x1d2
                    0x01d2                  P1FLTBCON = 0x1d2
                    0x01d2                  _P1FLTBCON = 0x1d2
                    0x01d2                  _P1FLTBCONbits = 0x1d2
                    0x01d4                  OVDCON = 0x1d4
                    0x01d4                  _OVDCON = 0x1d4
                    0x01d4                  _OVDCONbits = 0x1d4
                    0x01d4                  P1OVDCON = 0x1d4
                    0x01d4                  _P1OVDCON = 0x1d4
                    0x01d4                  _P1OVDCONbits = 0x1d4
                    0x01d6                  P1DC1 = 0x1d6
                    0x01d6                  _P1DC1 = 0x1d6
                    0x01d6                  PDC1 = 0x1d6
                    0x01d6                  _PDC1 = 0x1d6
                    0x01d8                  P1DC2 = 0x1d8
                    0x01d8                  _P1DC2 = 0x1d8
                    0x01d8                  PDC2 = 0x1d8
                    0x01d8                  _PDC2 = 0x1d8
                    0x01da                  P1DC3 = 0x1da
                    0x01da                  _P1DC3 = 0x1da
                    0x01da                  PDC3 = 0x1da
                    0x01da                  _PDC3 = 0x1da
                    0x01dc                  P1DC4 = 0x1dc
                    0x01dc                  _P1DC4 = 0x1dc
                    0x01dc                  PDC4 = 0x1dc
                    0x01dc                  _PDC4 = 0x1dc
                    0x01e0                  QEI1CON = 0x1e0
                    0x01e0                  _QEI1CON = 0x1e0
                    0x01e0                  _QEI1CONbits = 0x1e0
                    0x01e0                  QEICON = 0x1e0
                    0x01e0                  _QEICON = 0x1e0
                    0x01e0                  _QEICONbits = 0x1e0
                    0x01e2                  DFLT1CON = 0x1e2
                    0x01e2                  _DFLT1CON = 0x1e2
                    0x01e2                  _DFLT1CONbits = 0x1e2
                    0x01e2                  DFLTCON = 0x1e2
                    0x01e2                  _DFLTCON = 0x1e2
                    0x01e2                  _DFLTCONbits = 0x1e2
                    0x01e4                  POS1CNT = 0x1e4
                    0x01e4                  _POS1CNT = 0x1e4
                    0x01e4                  POSCNT = 0x1e4
                    0x01e4                  _POSCNT = 0x1e4
                    0x01e6                  MAX1CNT = 0x1e6
                    0x01e6                  _MAX1CNT = 0x1e6
                    0x01e6                  MAXCNT = 0x1e6
                    0x01e6                  _MAXCNT = 0x1e6
                    0x0200                  I2C1RCV = 0x200
                    0x0200                  _I2C1RCV = 0x200
                    0x0200                  I2CRCV = 0x200
                    0x0200                  _I2CRCV = 0x200
                    0x0202                  I2C1TRN = 0x202
                    0x0202                  _I2C1TRN = 0x202
                    0x0202                  I2CTRN = 0x202
                    0x0202                  _I2CTRN = 0x202
                    0x0204                  I2C1BRG = 0x204
                    0x0204                  _I2C1BRG = 0x204
                    0x0206                  I2C1CON = 0x206
                    0x0206                  _I2C1CON = 0x206
                    0x0206                  _I2C1CONbits = 0x206
                    0x0206                  I2CCON = 0x206
                    0x0206                  _I2CCON = 0x206
                    0x0206                  _I2CCONbits = 0x206
                    0x0208                  I2C1STAT = 0x208
                    0x0208                  _I2C1STAT = 0x208
                    0x0208                  _I2C1STATbits = 0x208
                    0x0208                  I2CSTAT = 0x208
                    0x0208                  _I2CSTAT = 0x208
                    0x0208                  _I2CSTATbits = 0x208
                    0x020a                  I2C1ADD = 0x20a
                    0x020a                  _I2C1ADD = 0x20a
                    0x020a                  I2CADD = 0x20a
                    0x020a                  _I2CADD = 0x20a
                    0x020c                  I2C1MSK = 0x20c
                    0x020c                  _I2C1MSK = 0x20c
                    0x0210                  I2C2RCV = 0x210
                    0x0210                  _I2C2RCV = 0x210
                    0x0212                  I2C2TRN = 0x212
                    0x0212                  _I2C2TRN = 0x212
                    0x0214                  I2C2BRG = 0x214
                    0x0214                  _I2C2BRG = 0x214
                    0x0216                  I2C2CON = 0x216
                    0x0216                  _I2C2CON = 0x216
                    0x0216                  _I2C2CONbits = 0x216
                    0x0218                  I2C2STAT = 0x218
                    0x0218                  _I2C2STAT = 0x218
                    0x0218                  _I2C2STATbits = 0x218
                    0x021a                  I2C2ADD = 0x21a
                    0x021a                  _I2C2ADD = 0x21a
                    0x021c                  I2C2MSK = 0x21c
                    0x021c                  _I2C2MSK = 0x21c
                    0x0220                  U1MODE = 0x220
                    0x0220                  _U1MODE = 0x220
                    0x0220                  _U1MODEbits = 0x220
                    0x0222                  U1STA = 0x222
                    0x0222                  _U1STA = 0x222
                    0x0222                  _U1STAbits = 0x222
                    0x0224                  U1TXREG = 0x224
                    0x0224                  _U1TXREG = 0x224
                    0x0224                  _U1TXREGbits = 0x224
                    0x0226                  U1RXREG = 0x226
                    0x0226                  _U1RXREG = 0x226
                    0x0226                  _U1RXREGbits = 0x226
                    0x0228                  U1BRG = 0x228
                    0x0228                  _U1BRG = 0x228
                    0x0230                  U2MODE = 0x230
                    0x0230                  _U2MODE = 0x230
                    0x0230                  _U2MODEbits = 0x230
                    0x0232                  U2STA = 0x232
                    0x0232                  _U2STA = 0x232
                    0x0232                  _U2STAbits = 0x232
                    0x0234                  U2TXREG = 0x234
                    0x0234                  _U2TXREG = 0x234
                    0x0234                  _U2TXREGbits = 0x234
                    0x0236                  U2RXREG = 0x236
                    0x0236                  _U2RXREG = 0x236
                    0x0236                  _U2RXREGbits = 0x236
                    0x0238                  U2BRG = 0x238
                    0x0238                  _U2BRG = 0x238
                    0x0240                  SPI1STAT = 0x240
                    0x0240                  _SPI1STAT = 0x240
                    0x0240                  _SPI1STATbits = 0x240
                    0x0242                  SPI1CON1 = 0x242
                    0x0242                  _SPI1CON1 = 0x242
                    0x0242                  _SPI1CON1bits = 0x242
                    0x0244                  SPI1CON2 = 0x244
                    0x0244                  _SPI1CON2 = 0x244
                    0x0244                  _SPI1CON2bits = 0x244
                    0x0248                  SPI1BUF = 0x248
                    0x0248                  _SPI1BUF = 0x248
                    0x0260                  SPI2STAT = 0x260
                    0x0260                  _SPI2STAT = 0x260
                    0x0260                  _SPI2STATbits = 0x260
                    0x0262                  SPI2CON1 = 0x262
                    0x0262                  _SPI2CON1 = 0x262
                    0x0262                  _SPI2CON1bits = 0x262
                    0x0264                  SPI2CON2 = 0x264
                    0x0264                  _SPI2CON2 = 0x264
                    0x0264                  _SPI2CON2bits = 0x264
                    0x0268                  SPI2BUF = 0x268
                    0x0268                  _SPI2BUF = 0x268
                    0x02c0                  TRISA = 0x2c0
                    0x02c0                  _TRISA = 0x2c0
                    0x02c0                  _TRISAbits = 0x2c0
                    0x02c2                  PORTA = 0x2c2
                    0x02c2                  _PORTA = 0x2c2
                    0x02c2                  _PORTAbits = 0x2c2
                    0x02c4                  LATA = 0x2c4
                    0x02c4                  _LATA = 0x2c4
                    0x02c4                  _LATAbits = 0x2c4
                    0x02c6                  TRISB = 0x2c6
                    0x02c6                  _TRISB = 0x2c6
                    0x02c6                  _TRISBbits = 0x2c6
                    0x02c8                  PORTB = 0x2c8
                    0x02c8                  _PORTB = 0x2c8
                    0x02c8                  _PORTBbits = 0x2c8
                    0x02ca                  LATB = 0x2ca
                    0x02ca                  _LATB = 0x2ca
                    0x02ca                  _LATBbits = 0x2ca
                    0x02cc                  TRISC = 0x2cc
                    0x02cc                  _TRISC = 0x2cc
                    0x02cc                  _TRISCbits = 0x2cc
                    0x02ce                  PORTC = 0x2ce
                    0x02ce                  _PORTC = 0x2ce
                    0x02ce                  _PORTCbits = 0x2ce
                    0x02d0                  LATC = 0x2d0
                    0x02d0                  _LATC = 0x2d0
                    0x02d0                  _LATCbits = 0x2d0
                    0x02d2                  TRISD = 0x2d2
                    0x02d2                  _TRISD = 0x2d2
                    0x02d2                  _TRISDbits = 0x2d2
                    0x02d4                  PORTD = 0x2d4
                    0x02d4                  _PORTD = 0x2d4
                    0x02d4                  _PORTDbits = 0x2d4
                    0x02d6                  LATD = 0x2d6
                    0x02d6                  _LATD = 0x2d6
                    0x02d6                  _LATDbits = 0x2d6
                    0x02d8                  TRISE = 0x2d8
                    0x02d8                  _TRISE = 0x2d8
                    0x02d8                  _TRISEbits = 0x2d8
                    0x02da                  PORTE = 0x2da
                    0x02da                  _PORTE = 0x2da
                    0x02da                  _PORTEbits = 0x2da
                    0x02dc                  LATE = 0x2dc
                    0x02dc                  _LATE = 0x2dc
                    0x02dc                  _LATEbits = 0x2dc
                    0x02de                  TRISF = 0x2de
                    0x02de                  _TRISF = 0x2de
                    0x02de                  _TRISFbits = 0x2de
                    0x02e0                  PORTF = 0x2e0
                    0x02e0                  _PORTF = 0x2e0
                    0x02e0                  _PORTFbits = 0x2e0
                    0x02e2                  LATF = 0x2e2
                    0x02e2                  _LATF = 0x2e2
                    0x02e2                  _LATFbits = 0x2e2
                    0x02e4                  TRISG = 0x2e4
                    0x02e4                  _TRISG = 0x2e4
                    0x02e4                  _TRISGbits = 0x2e4
                    0x02e6                  PORTG = 0x2e6
                    0x02e6                  _PORTG = 0x2e6
                    0x02e6                  _PORTGbits = 0x2e6
                    0x02e8                  LATG = 0x2e8
                    0x02e8                  _LATG = 0x2e8
                    0x02e8                  _LATGbits = 0x2e8
                    0x0300                  ADC1BUF0 = 0x300
                    0x0300                  _ADC1BUF0 = 0x300
                    0x0300                  ADCBUF0 = 0x300
                    0x0300                  _ADCBUF0 = 0x300
                    0x0320                  AD1CON1 = 0x320
                    0x0320                  _AD1CON1 = 0x320
                    0x0320                  _AD1CON1bits = 0x320
                    0x0322                  AD1CON2 = 0x322
                    0x0322                  _AD1CON2 = 0x322
                    0x0322                  _AD1CON2bits = 0x322
                    0x0324                  AD1CON3 = 0x324
                    0x0324                  _AD1CON3 = 0x324
                    0x0324                  _AD1CON3bits = 0x324
                    0x0326                  AD1CHS123 = 0x326
                    0x0326                  _AD1CHS123 = 0x326
                    0x0326                  _AD1CHS123bits = 0x326
                    0x0328                  AD1CHS0 = 0x328
                    0x0328                  _AD1CHS0 = 0x328
                    0x0328                  _AD1CHS0bits = 0x328
                    0x032a                  AD1PCFGH = 0x32a
                    0x032a                  _AD1PCFGH = 0x32a
                    0x032a                  _AD1PCFGHbits = 0x32a
                    0x032c                  AD1PCFGL = 0x32c
                    0x032c                  _AD1PCFGL = 0x32c
                    0x032c                  _AD1PCFGLbits = 0x32c
                    0x032c                  ADPCFG = 0x32c
                    0x032c                  _ADPCFG = 0x32c
                    0x032c                  _ADPCFGbits = 0x32c
                    0x032e                  AD1CSSH = 0x32e
                    0x032e                  _AD1CSSH = 0x32e
                    0x032e                  _AD1CSSHbits = 0x32e
                    0x0330                  AD1CSSL = 0x330
                    0x0330                  _AD1CSSL = 0x330
                    0x0330                  _AD1CSSLbits = 0x330
                    0x0332                  AD1CON4 = 0x332
                    0x0332                  _AD1CON4 = 0x332
                    0x0332                  _AD1CON4bits = 0x332
                    0x0340                  ADC2BUF0 = 0x340
                    0x0340                  _ADC2BUF0 = 0x340
                    0x0360                  AD2CON1 = 0x360
                    0x0360                  _AD2CON1 = 0x360
                    0x0360                  _AD2CON1bits = 0x360
                    0x0362                  AD2CON2 = 0x362
                    0x0362                  _AD2CON2 = 0x362
                    0x0362                  _AD2CON2bits = 0x362
                    0x0364                  AD2CON3 = 0x364
                    0x0364                  _AD2CON3 = 0x364
                    0x0364                  _AD2CON3bits = 0x364
                    0x0366                  AD2CHS123 = 0x366
                    0x0366                  _AD2CHS123 = 0x366
                    0x0366                  _AD2CHS123bits = 0x366
                    0x0368                  AD2CHS0 = 0x368
                    0x0368                  _AD2CHS0 = 0x368
                    0x0368                  _AD2CHS0bits = 0x368
                    0x036c                  AD2PCFGL = 0x36c
                    0x036c                  _AD2PCFGL = 0x36c
                    0x036c                  _AD2PCFGLbits = 0x36c
                    0x0370                  AD2CSSL = 0x370
                    0x0370                  _AD2CSSL = 0x370
                    0x0370                  _AD2CSSLbits = 0x370
                    0x0372                  AD2CON4 = 0x372
                    0x0372                  _AD2CON4 = 0x372
                    0x0372                  _AD2CON4bits = 0x372
                    0x0380                  DMA0CON = 0x380
                    0x0380                  _DMA0CON = 0x380
                    0x0380                  _DMA0CONbits = 0x380
                    0x0382                  DMA0REQ = 0x382
                    0x0382                  _DMA0REQ = 0x382
                    0x0382                  _DMA0REQbits = 0x382
                    0x0384                  DMA0STA = 0x384
                    0x0384                  _DMA0STA = 0x384
                    0x0386                  DMA0STB = 0x386
                    0x0386                  _DMA0STB = 0x386
                    0x0388                  DMA0PAD = 0x388
                    0x0388                  _DMA0PAD = 0x388
                    0x038a                  DMA0CNT = 0x38a
                    0x038a                  _DMA0CNT = 0x38a
                    0x038c                  DMA1CON = 0x38c
                    0x038c                  _DMA1CON = 0x38c
                    0x038c                  _DMA1CONbits = 0x38c
                    0x038e                  DMA1REQ = 0x38e
                    0x038e                  _DMA1REQ = 0x38e
                    0x038e                  _DMA1REQbits = 0x38e
                    0x0390                  DMA1STA = 0x390
                    0x0390                  _DMA1STA = 0x390
                    0x0392                  DMA1STB = 0x392
                    0x0392                  _DMA1STB = 0x392
                    0x0394                  DMA1PAD = 0x394
                    0x0394                  _DMA1PAD = 0x394
                    0x0396                  DMA1CNT = 0x396
                    0x0396                  _DMA1CNT = 0x396
                    0x0398                  DMA2CON = 0x398
                    0x0398                  _DMA2CON = 0x398
                    0x0398                  _DMA2CONbits = 0x398
                    0x039a                  DMA2REQ = 0x39a
                    0x039a                  _DMA2REQ = 0x39a
                    0x039a                  _DMA2REQbits = 0x39a
                    0x039c                  DMA2STA = 0x39c
                    0x039c                  _DMA2STA = 0x39c
                    0x039e                  DMA2STB = 0x39e
                    0x039e                  _DMA2STB = 0x39e
                    0x03a0                  DMA2PAD = 0x3a0
                    0x03a0                  _DMA2PAD = 0x3a0
                    0x03a2                  DMA2CNT = 0x3a2
                    0x03a2                  _DMA2CNT = 0x3a2
                    0x03a4                  DMA3CON = 0x3a4
                    0x03a4                  _DMA3CON = 0x3a4
                    0x03a4                  _DMA3CONbits = 0x3a4
                    0x03a6                  DMA3REQ = 0x3a6
                    0x03a6                  _DMA3REQ = 0x3a6
                    0x03a6                  _DMA3REQbits = 0x3a6
                    0x03a8                  DMA3STA = 0x3a8
                    0x03a8                  _DMA3STA = 0x3a8
                    0x03aa                  DMA3STB = 0x3aa
                    0x03aa                  _DMA3STB = 0x3aa
                    0x03ac                  DMA3PAD = 0x3ac
                    0x03ac                  _DMA3PAD = 0x3ac
                    0x03ae                  DMA3CNT = 0x3ae
                    0x03ae                  _DMA3CNT = 0x3ae
                    0x03b0                  DMA4CON = 0x3b0
                    0x03b0                  _DMA4CON = 0x3b0
                    0x03b0                  _DMA4CONbits = 0x3b0
                    0x03b2                  DMA4REQ = 0x3b2
                    0x03b2                  _DMA4REQ = 0x3b2
                    0x03b2                  _DMA4REQbits = 0x3b2
                    0x03b4                  DMA4STA = 0x3b4
                    0x03b4                  _DMA4STA = 0x3b4
                    0x03b6                  DMA4STB = 0x3b6
                    0x03b6                  _DMA4STB = 0x3b6
                    0x03b8                  DMA4PAD = 0x3b8
                    0x03b8                  _DMA4PAD = 0x3b8
                    0x03ba                  DMA4CNT = 0x3ba
                    0x03ba                  _DMA4CNT = 0x3ba
                    0x03bc                  DMA5CON = 0x3bc
                    0x03bc                  _DMA5CON = 0x3bc
                    0x03bc                  _DMA5CONbits = 0x3bc
                    0x03be                  DMA5REQ = 0x3be
                    0x03be                  _DMA5REQ = 0x3be
                    0x03be                  _DMA5REQbits = 0x3be
                    0x03c0                  DMA5STA = 0x3c0
                    0x03c0                  _DMA5STA = 0x3c0
                    0x03c2                  DMA5STB = 0x3c2
                    0x03c2                  _DMA5STB = 0x3c2
                    0x03c4                  DMA5PAD = 0x3c4
                    0x03c4                  _DMA5PAD = 0x3c4
                    0x03c6                  DMA5CNT = 0x3c6
                    0x03c6                  _DMA5CNT = 0x3c6
                    0x03c8                  DMA6CON = 0x3c8
                    0x03c8                  _DMA6CON = 0x3c8
                    0x03c8                  _DMA6CONbits = 0x3c8
                    0x03ca                  DMA6REQ = 0x3ca
                    0x03ca                  _DMA6REQ = 0x3ca
                    0x03ca                  _DMA6REQbits = 0x3ca
                    0x03cc                  DMA6STA = 0x3cc
                    0x03cc                  _DMA6STA = 0x3cc
                    0x03ce                  DMA6STB = 0x3ce
                    0x03ce                  _DMA6STB = 0x3ce
                    0x03d0                  DMA6PAD = 0x3d0
                    0x03d0                  _DMA6PAD = 0x3d0
                    0x03d2                  DMA6CNT = 0x3d2
                    0x03d2                  _DMA6CNT = 0x3d2
                    0x03d4                  DMA7CON = 0x3d4
                    0x03d4                  _DMA7CON = 0x3d4
                    0x03d4                  _DMA7CONbits = 0x3d4
                    0x03d6                  DMA7REQ = 0x3d6
                    0x03d6                  _DMA7REQ = 0x3d6
                    0x03d6                  _DMA7REQbits = 0x3d6
                    0x03d8                  DMA7STA = 0x3d8
                    0x03d8                  _DMA7STA = 0x3d8
                    0x03da                  DMA7STB = 0x3da
                    0x03da                  _DMA7STB = 0x3da
                    0x03dc                  DMA7PAD = 0x3dc
                    0x03dc                  _DMA7PAD = 0x3dc
                    0x03de                  DMA7CNT = 0x3de
                    0x03de                  _DMA7CNT = 0x3de
                    0x03e0                  DMACS0 = 0x3e0
                    0x03e0                  _DMACS0 = 0x3e0
                    0x03e0                  _DMACS0bits = 0x3e0
                    0x03e2                  DMACS1 = 0x3e2
                    0x03e2                  _DMACS1 = 0x3e2
                    0x03e2                  _DMACS1bits = 0x3e2
                    0x03e4                  DSADR = 0x3e4
                    0x03e4                  _DSADR = 0x3e4
                    0x0400                  C1CTRL1 = 0x400
                    0x0400                  _C1CTRL1 = 0x400
                    0x0400                  _C1CTRL1bits = 0x400
                    0x0402                  C1CTRL2 = 0x402
                    0x0402                  _C1CTRL2 = 0x402
                    0x0402                  _C1CTRL2bits = 0x402
                    0x0404                  C1VEC = 0x404
                    0x0404                  _C1VEC = 0x404
                    0x0404                  _C1VECbits = 0x404
                    0x0406                  C1FCTRL = 0x406
                    0x0406                  _C1FCTRL = 0x406
                    0x0406                  _C1FCTRLbits = 0x406
                    0x0408                  C1FIFO = 0x408
                    0x0408                  _C1FIFO = 0x408
                    0x0408                  _C1FIFObits = 0x408
                    0x040a                  C1INTF = 0x40a
                    0x040a                  _C1INTF = 0x40a
                    0x040a                  _C1INTFbits = 0x40a
                    0x040c                  C1INTE = 0x40c
                    0x040c                  _C1INTE = 0x40c
                    0x040c                  _C1INTEbits = 0x40c
                    0x040e                  C1EC = 0x40e
                    0x040e                  _C1EC = 0x40e
                    0x040e                  _C1ECbits = 0x40e
                    0x040e                  C1RERRCNT = 0x40e
                    0x040e                  _C1RERRCNT = 0x40e
                    0x040f                  C1TERRCNT = 0x40f
                    0x040f                  _C1TERRCNT = 0x40f
                    0x0410                  C1CFG1 = 0x410
                    0x0410                  _C1CFG1 = 0x410
                    0x0410                  _C1CFG1bits = 0x410
                    0x0412                  C1CFG2 = 0x412
                    0x0412                  _C1CFG2 = 0x412
                    0x0412                  _C1CFG2bits = 0x412
                    0x0414                  C1FEN1 = 0x414
                    0x0414                  _C1FEN1 = 0x414
                    0x0414                  _C1FEN1bits = 0x414
                    0x0418                  C1FMSKSEL1 = 0x418
                    0x0418                  _C1FMSKSEL1 = 0x418
                    0x0418                  _C1FMSKSEL1bits = 0x418
                    0x041a                  C1FMSKSEL2 = 0x41a
                    0x041a                  _C1FMSKSEL2 = 0x41a
                    0x041a                  _C1FMSKSEL2bits = 0x41a
                    0x0420                  C1BUFPNT1 = 0x420
                    0x0420                  _C1BUFPNT1 = 0x420
                    0x0420                  _C1BUFPNT1bits = 0x420
                    0x0420                  C1RXFUL1 = 0x420
                    0x0420                  _C1RXFUL1 = 0x420
                    0x0420                  _C1RXFUL1bits = 0x420
                    0x0422                  C1BUFPNT2 = 0x422
                    0x0422                  _C1BUFPNT2 = 0x422
                    0x0422                  _C1BUFPNT2bits = 0x422
                    0x0422                  C1RXFUL2 = 0x422
                    0x0422                  _C1RXFUL2 = 0x422
                    0x0422                  _C1RXFUL2bits = 0x422
                    0x0424                  C1BUFPNT3 = 0x424
                    0x0424                  _C1BUFPNT3 = 0x424
                    0x0424                  _C1BUFPNT3bits = 0x424
                    0x0426                  C1BUFPNT4 = 0x426
                    0x0426                  _C1BUFPNT4 = 0x426
                    0x0426                  _C1BUFPNT4bits = 0x426
                    0x0428                  C1RXOVF1 = 0x428
                    0x0428                  _C1RXOVF1 = 0x428
                    0x0428                  _C1RXOVF1bits = 0x428
                    0x042a                  C1RXOVF2 = 0x42a
                    0x042a                  _C1RXOVF2 = 0x42a
                    0x042a                  _C1RXOVF2bits = 0x42a
                    0x0430                  C1RXM0SID = 0x430
                    0x0430                  _C1RXM0SID = 0x430
                    0x0430                  _C1RXM0SIDbits = 0x430
                    0x0430                  C1TR01CON = 0x430
                    0x0430                  _C1TR01CON = 0x430
                    0x0430                  _C1TR01CONbits = 0x430
                    0x0432                  C1RXM0EID = 0x432
                    0x0432                  _C1RXM0EID = 0x432
                    0x0432                  _C1RXM0EIDbits = 0x432
                    0x0432                  C1TR23CON = 0x432
                    0x0432                  _C1TR23CON = 0x432
                    0x0432                  _C1TR23CONbits = 0x432
                    0x0434                  C1RXM1SID = 0x434
                    0x0434                  _C1RXM1SID = 0x434
                    0x0434                  _C1RXM1SIDbits = 0x434
                    0x0434                  C1TR45CON = 0x434
                    0x0434                  _C1TR45CON = 0x434
                    0x0434                  _C1TR45CONbits = 0x434
                    0x0436                  C1RXM1EID = 0x436
                    0x0436                  _C1RXM1EID = 0x436
                    0x0436                  _C1RXM1EIDbits = 0x436
                    0x0436                  C1TR67CON = 0x436
                    0x0436                  _C1TR67CON = 0x436
                    0x0436                  _C1TR67CONbits = 0x436
                    0x0438                  C1RXM2SID = 0x438
                    0x0438                  _C1RXM2SID = 0x438
                    0x0438                  _C1RXM2SIDbits = 0x438
                    0x043a                  C1RXM2EID = 0x43a
                    0x043a                  _C1RXM2EID = 0x43a
                    0x043a                  _C1RXM2EIDbits = 0x43a
                    0x0440                  C1RXD = 0x440
                    0x0440                  _C1RXD = 0x440
                    0x0440                  C1RXF0SID = 0x440
                    0x0440                  _C1RXF0SID = 0x440
                    0x0440                  _C1RXF0SIDbits = 0x440
                    0x0442                  C1RXF0EID = 0x442
                    0x0442                  _C1RXF0EID = 0x442
                    0x0442                  _C1RXF0EIDbits = 0x442
                    0x0442                  C1TXD = 0x442
                    0x0442                  _C1TXD = 0x442
                    0x0442                  _C1TXDbits = 0x442
                    0x0444                  C1RXF1SID = 0x444
                    0x0444                  _C1RXF1SID = 0x444
                    0x0444                  _C1RXF1SIDbits = 0x444
                    0x0446                  C1RXF1EID = 0x446
                    0x0446                  _C1RXF1EID = 0x446
                    0x0446                  _C1RXF1EIDbits = 0x446
                    0x0448                  C1RXF2SID = 0x448
                    0x0448                  _C1RXF2SID = 0x448
                    0x0448                  _C1RXF2SIDbits = 0x448
                    0x044a                  C1RXF2EID = 0x44a
                    0x044a                  _C1RXF2EID = 0x44a
                    0x044a                  _C1RXF2EIDbits = 0x44a
                    0x044c                  C1RXF3SID = 0x44c
                    0x044c                  _C1RXF3SID = 0x44c
                    0x044c                  _C1RXF3SIDbits = 0x44c
                    0x044e                  C1RXF3EID = 0x44e
                    0x044e                  _C1RXF3EID = 0x44e
                    0x044e                  _C1RXF3EIDbits = 0x44e
                    0x0450                  C1RXF4SID = 0x450
                    0x0450                  _C1RXF4SID = 0x450
                    0x0450                  _C1RXF4SIDbits = 0x450
                    0x0452                  C1RXF4EID = 0x452
                    0x0452                  _C1RXF4EID = 0x452
                    0x0452                  _C1RXF4EIDbits = 0x452
                    0x0454                  C1RXF5SID = 0x454
                    0x0454                  _C1RXF5SID = 0x454
                    0x0454                  _C1RXF5SIDbits = 0x454
                    0x0456                  C1RXF5EID = 0x456
                    0x0456                  _C1RXF5EID = 0x456
                    0x0456                  _C1RXF5EIDbits = 0x456
                    0x0458                  C1RXF6SID = 0x458
                    0x0458                  _C1RXF6SID = 0x458
                    0x0458                  _C1RXF6SIDbits = 0x458
                    0x045a                  C1RXF6EID = 0x45a
                    0x045a                  _C1RXF6EID = 0x45a
                    0x045a                  _C1RXF6EIDbits = 0x45a
                    0x045c                  C1RXF7SID = 0x45c
                    0x045c                  _C1RXF7SID = 0x45c
                    0x045c                  _C1RXF7SIDbits = 0x45c
                    0x045e                  C1RXF7EID = 0x45e
                    0x045e                  _C1RXF7EID = 0x45e
                    0x045e                  _C1RXF7EIDbits = 0x45e
                    0x0460                  C1RXF8SID = 0x460
                    0x0460                  _C1RXF8SID = 0x460
                    0x0460                  _C1RXF8SIDbits = 0x460
                    0x0462                  C1RXF8EID = 0x462
                    0x0462                  _C1RXF8EID = 0x462
                    0x0462                  _C1RXF8EIDbits = 0x462
                    0x0464                  C1RXF9SID = 0x464
                    0x0464                  _C1RXF9SID = 0x464
                    0x0464                  _C1RXF9SIDbits = 0x464
                    0x0466                  C1RXF9EID = 0x466
                    0x0466                  _C1RXF9EID = 0x466
                    0x0466                  _C1RXF9EIDbits = 0x466
                    0x0468                  C1RXF10SID = 0x468
                    0x0468                  _C1RXF10SID = 0x468
                    0x0468                  _C1RXF10SIDbits = 0x468
                    0x046a                  C1RXF10EID = 0x46a
                    0x046a                  _C1RXF10EID = 0x46a
                    0x046a                  _C1RXF10EIDbits = 0x46a
                    0x046c                  C1RXF11SID = 0x46c
                    0x046c                  _C1RXF11SID = 0x46c
                    0x046c                  _C1RXF11SIDbits = 0x46c
                    0x046e                  C1RXF11EID = 0x46e
                    0x046e                  _C1RXF11EID = 0x46e
                    0x046e                  _C1RXF11EIDbits = 0x46e
                    0x0470                  C1RXF12SID = 0x470
                    0x0470                  _C1RXF12SID = 0x470
                    0x0470                  _C1RXF12SIDbits = 0x470
                    0x0472                  C1RXF12EID = 0x472
                    0x0472                  _C1RXF12EID = 0x472
                    0x0472                  _C1RXF12EIDbits = 0x472
                    0x0474                  C1RXF13SID = 0x474
                    0x0474                  _C1RXF13SID = 0x474
                    0x0474                  _C1RXF13SIDbits = 0x474
                    0x0476                  C1RXF13EID = 0x476
                    0x0476                  _C1RXF13EID = 0x476
                    0x0476                  _C1RXF13EIDbits = 0x476
                    0x0478                  C1RXF14SID = 0x478
                    0x0478                  _C1RXF14SID = 0x478
                    0x0478                  _C1RXF14SIDbits = 0x478
                    0x047a                  C1RXF14EID = 0x47a
                    0x047a                  _C1RXF14EID = 0x47a
                    0x047a                  _C1RXF14EIDbits = 0x47a
                    0x047c                  C1RXF15SID = 0x47c
                    0x047c                  _C1RXF15SID = 0x47c
                    0x047c                  _C1RXF15SIDbits = 0x47c
                    0x047e                  C1RXF15EID = 0x47e
                    0x047e                  _C1RXF15EID = 0x47e
                    0x047e                  _C1RXF15EIDbits = 0x47e
                    0x0500                  C2CTRL1 = 0x500
                    0x0500                  _C2CTRL1 = 0x500
                    0x0500                  _C2CTRL1bits = 0x500
                    0x0502                  C2CTRL2 = 0x502
                    0x0502                  _C2CTRL2 = 0x502
                    0x0502                  _C2CTRL2bits = 0x502
                    0x0504                  C2VEC = 0x504
                    0x0504                  _C2VEC = 0x504
                    0x0504                  _C2VECbits = 0x504
                    0x0506                  C2FCTRL = 0x506
                    0x0506                  _C2FCTRL = 0x506
                    0x0506                  _C2FCTRLbits = 0x506
                    0x0508                  C2FIFO = 0x508
                    0x0508                  _C2FIFO = 0x508
                    0x0508                  _C2FIFObits = 0x508
                    0x050a                  C2INTF = 0x50a
                    0x050a                  _C2INTF = 0x50a
                    0x050a                  _C2INTFbits = 0x50a
                    0x050c                  C2INTE = 0x50c
                    0x050c                  _C2INTE = 0x50c
                    0x050c                  _C2INTEbits = 0x50c
                    0x050e                  C2EC = 0x50e
                    0x050e                  _C2EC = 0x50e
                    0x050e                  _C2ECbits = 0x50e
                    0x050e                  C2RERRCNT = 0x50e
                    0x050e                  _C2RERRCNT = 0x50e
                    0x050f                  C2TERRCNT = 0x50f
                    0x050f                  _C2TERRCNT = 0x50f
                    0x0510                  C2CFG1 = 0x510
                    0x0510                  _C2CFG1 = 0x510
                    0x0510                  _C2CFG1bits = 0x510
                    0x0512                  C2CFG2 = 0x512
                    0x0512                  _C2CFG2 = 0x512
                    0x0512                  _C2CFG2bits = 0x512
                    0x0514                  C2FEN1 = 0x514
                    0x0514                  _C2FEN1 = 0x514
                    0x0514                  _C2FEN1bits = 0x514
                    0x0518                  C2FMSKSEL1 = 0x518
                    0x0518                  _C2FMSKSEL1 = 0x518
                    0x0518                  _C2FMSKSEL1bits = 0x518
                    0x051a                  C2FMSKSEL2 = 0x51a
                    0x051a                  _C2FMSKSEL2 = 0x51a
                    0x051a                  _C2FMSKSEL2bits = 0x51a
                    0x0520                  C2BUFPNT1 = 0x520
                    0x0520                  _C2BUFPNT1 = 0x520
                    0x0520                  _C2BUFPNT1bits = 0x520
                    0x0520                  C2RXFUL1 = 0x520
                    0x0520                  _C2RXFUL1 = 0x520
                    0x0520                  _C2RXFUL1bits = 0x520
                    0x0522                  C2BUFPNT2 = 0x522
                    0x0522                  _C2BUFPNT2 = 0x522
                    0x0522                  _C2BUFPNT2bits = 0x522
                    0x0522                  C2RXFUL2 = 0x522
                    0x0522                  _C2RXFUL2 = 0x522
                    0x0522                  _C2RXFUL2bits = 0x522
                    0x0524                  C2BUFPNT3 = 0x524
                    0x0524                  _C2BUFPNT3 = 0x524
                    0x0524                  _C2BUFPNT3bits = 0x524
                    0x0526                  C2BUFPNT4 = 0x526
                    0x0526                  _C2BUFPNT4 = 0x526
                    0x0526                  _C2BUFPNT4bits = 0x526
                    0x0528                  C2RXOVF1 = 0x528
                    0x0528                  _C2RXOVF1 = 0x528
                    0x0528                  _C2RXOVF1bits = 0x528
                    0x052a                  C2RXOVF2 = 0x52a
                    0x052a                  _C2RXOVF2 = 0x52a
                    0x052a                  _C2RXOVF2bits = 0x52a
                    0x0530                  C2RXM0SID = 0x530
                    0x0530                  _C2RXM0SID = 0x530
                    0x0530                  _C2RXM0SIDbits = 0x530
                    0x0530                  C2TR01CON = 0x530
                    0x0530                  _C2TR01CON = 0x530
                    0x0530                  _C2TR01CONbits = 0x530
                    0x0532                  C2RXM0EID = 0x532
                    0x0532                  _C2RXM0EID = 0x532
                    0x0532                  _C2RXM0EIDbits = 0x532
                    0x0532                  C2TR23CON = 0x532
                    0x0532                  _C2TR23CON = 0x532
                    0x0532                  _C2TR23CONbits = 0x532
                    0x0534                  C2RXM1SID = 0x534
                    0x0534                  _C2RXM1SID = 0x534
                    0x0534                  _C2RXM1SIDbits = 0x534
                    0x0534                  C2TR45CON = 0x534
                    0x0534                  _C2TR45CON = 0x534
                    0x0534                  _C2TR45CONbits = 0x534
                    0x0536                  C2RXM1EID = 0x536
                    0x0536                  _C2RXM1EID = 0x536
                    0x0536                  _C2RXM1EIDbits = 0x536
                    0x0536                  C2TR67CON = 0x536
                    0x0536                  _C2TR67CON = 0x536
                    0x0536                  _C2TR67CONbits = 0x536
                    0x0538                  C2RXM2SID = 0x538
                    0x0538                  _C2RXM2SID = 0x538
                    0x0538                  _C2RXM2SIDbits = 0x538
                    0x053a                  C2RXM2EID = 0x53a
                    0x053a                  _C2RXM2EID = 0x53a
                    0x053a                  _C2RXM2EIDbits = 0x53a
                    0x0540                  C2RXD = 0x540
                    0x0540                  _C2RXD = 0x540
                    0x0540                  C2RXF0SID = 0x540
                    0x0540                  _C2RXF0SID = 0x540
                    0x0540                  _C2RXF0SIDbits = 0x540
                    0x0542                  C2RXF0EID = 0x542
                    0x0542                  _C2RXF0EID = 0x542
                    0x0542                  _C2RXF0EIDbits = 0x542
                    0x0542                  C2TXD = 0x542
                    0x0542                  _C2TXD = 0x542
                    0x0544                  C2RXF1SID = 0x544
                    0x0544                  _C2RXF1SID = 0x544
                    0x0544                  _C2RXF1SIDbits = 0x544
                    0x0546                  C2RXF1EID = 0x546
                    0x0546                  _C2RXF1EID = 0x546
                    0x0546                  _C2RXF1EIDbits = 0x546
                    0x0548                  C2RXF2SID = 0x548
                    0x0548                  _C2RXF2SID = 0x548
                    0x0548                  _C2RXF2SIDbits = 0x548
                    0x054a                  C2RXF2EID = 0x54a
                    0x054a                  _C2RXF2EID = 0x54a
                    0x054a                  _C2RXF2EIDbits = 0x54a
                    0x054c                  C2RXF3SID = 0x54c
                    0x054c                  _C2RXF3SID = 0x54c
                    0x054c                  _C2RXF3SIDbits = 0x54c
                    0x054e                  C2RXF3EID = 0x54e
                    0x054e                  _C2RXF3EID = 0x54e
                    0x054e                  _C2RXF3EIDbits = 0x54e
                    0x0550                  C2RXF4SID = 0x550
                    0x0550                  _C2RXF4SID = 0x550
                    0x0550                  _C2RXF4SIDbits = 0x550
                    0x0552                  C2RXF4EID = 0x552
                    0x0552                  _C2RXF4EID = 0x552
                    0x0552                  _C2RXF4EIDbits = 0x552
                    0x0554                  C2RXF5SID = 0x554
                    0x0554                  _C2RXF5SID = 0x554
                    0x0554                  _C2RXF5SIDbits = 0x554
                    0x0556                  C2RXF5EID = 0x556
                    0x0556                  _C2RXF5EID = 0x556
                    0x0556                  _C2RXF5EIDbits = 0x556
                    0x0558                  C2RXF6SID = 0x558
                    0x0558                  _C2RXF6SID = 0x558
                    0x0558                  _C2RXF6SIDbits = 0x558
                    0x055a                  C2RXF6EID = 0x55a
                    0x055a                  _C2RXF6EID = 0x55a
                    0x055a                  _C2RXF6EIDbits = 0x55a
                    0x055c                  C2RXF7SID = 0x55c
                    0x055c                  _C2RXF7SID = 0x55c
                    0x055c                  _C2RXF7SIDbits = 0x55c
                    0x055e                  C2RXF7EID = 0x55e
                    0x055e                  _C2RXF7EID = 0x55e
                    0x055e                  _C2RXF7EIDbits = 0x55e
                    0x0560                  C2RXF8SID = 0x560
                    0x0560                  _C2RXF8SID = 0x560
                    0x0560                  _C2RXF8SIDbits = 0x560
                    0x0562                  C2RXF8EID = 0x562
                    0x0562                  _C2RXF8EID = 0x562
                    0x0562                  _C2RXF8EIDbits = 0x562
                    0x0564                  C2RXF9SID = 0x564
                    0x0564                  _C2RXF9SID = 0x564
                    0x0564                  _C2RXF9SIDbits = 0x564
                    0x0566                  C2RXF9EID = 0x566
                    0x0566                  _C2RXF9EID = 0x566
                    0x0566                  _C2RXF9EIDbits = 0x566
                    0x0568                  C2RXF10SID = 0x568
                    0x0568                  _C2RXF10SID = 0x568
                    0x0568                  _C2RXF10SIDbits = 0x568
                    0x056a                  C2RXF10EID = 0x56a
                    0x056a                  _C2RXF10EID = 0x56a
                    0x056a                  _C2RXF10EIDbits = 0x56a
                    0x056c                  C2RXF11SID = 0x56c
                    0x056c                  _C2RXF11SID = 0x56c
                    0x056c                  _C2RXF11SIDbits = 0x56c
                    0x056e                  C2RXF11EID = 0x56e
                    0x056e                  _C2RXF11EID = 0x56e
                    0x056e                  _C2RXF11EIDbits = 0x56e
                    0x0570                  C2RXF12SID = 0x570
                    0x0570                  _C2RXF12SID = 0x570
                    0x0570                  _C2RXF12SIDbits = 0x570
                    0x0572                  C2RXF12EID = 0x572
                    0x0572                  _C2RXF12EID = 0x572
                    0x0572                  _C2RXF12EIDbits = 0x572
                    0x0574                  C2RXF13SID = 0x574
                    0x0574                  _C2RXF13SID = 0x574
                    0x0574                  _C2RXF13SIDbits = 0x574
                    0x0576                  C2RXF13EID = 0x576
                    0x0576                  _C2RXF13EID = 0x576
                    0x0576                  _C2RXF13EIDbits = 0x576
                    0x0578                  C2RXF14SID = 0x578
                    0x0578                  _C2RXF14SID = 0x578
                    0x0578                  _C2RXF14SIDbits = 0x578
                    0x057a                  C2RXF14EID = 0x57a
                    0x057a                  _C2RXF14EID = 0x57a
                    0x057a                  _C2RXF14EIDbits = 0x57a
                    0x057c                  C2RXF15SID = 0x57c
                    0x057c                  _C2RXF15SID = 0x57c
                    0x057c                  _C2RXF15SIDbits = 0x57c
                    0x057e                  C2RXF15EID = 0x57e
                    0x057e                  _C2RXF15EID = 0x57e
                    0x057e                  _C2RXF15EIDbits = 0x57e
                    0x06c0                  ODCA = 0x6c0
                    0x06c0                  _ODCA = 0x6c0
                    0x06c0                  _ODCAbits = 0x6c0
                    0x06d2                  ODCD = 0x6d2
                    0x06d2                  _ODCD = 0x6d2
                    0x06d2                  _ODCDbits = 0x6d2
                    0x06de                  ODCF = 0x6de
                    0x06de                  _ODCF = 0x6de
                    0x06de                  _ODCFbits = 0x6de
                    0x06e4                  ODCG = 0x6e4
                    0x06e4                  _ODCG = 0x6e4
                    0x06e4                  _ODCGbits = 0x6e4
                    0x0740                  RCON = 0x740
                    0x0740                  _RCON = 0x740
                    0x0740                  _RCONbits = 0x740
                    0x0742                  OSCCON = 0x742
                    0x0742                  _OSCCON = 0x742
                    0x0742                  _OSCCONbits = 0x742
                    0x0742                  OSCCONL = 0x742
                    0x0742                  _OSCCONL = 0x742
                    0x0743                  OSCCONH = 0x743
                    0x0743                  _OSCCONH = 0x743
                    0x0744                  CLKDIV = 0x744
                    0x0744                  _CLKDIV = 0x744
                    0x0744                  _CLKDIVbits = 0x744
                    0x0746                  PLLFBD = 0x746
                    0x0746                  _PLLFBD = 0x746
                    0x0746                  _PLLFBDbits = 0x746
                    0x0748                  OSCTUN = 0x748
                    0x0748                  _OSCTUN = 0x748
                    0x0748                  _OSCTUNbits = 0x748
                    0x0750                  BSRAM = 0x750
                    0x0750                  _BSRAM = 0x750
                    0x0750                  _BSRAMbits = 0x750
                    0x0752                  SSRAM = 0x752
                    0x0752                  _SSRAM = 0x752
                    0x0752                  _SSRAMbits = 0x752
                    0x0760                  NVMCON = 0x760
                    0x0760                  _NVMCON = 0x760
                    0x0760                  _NVMCONbits = 0x760
                    0x0766                  NVMKEY = 0x766
                    0x0766                  _NVMKEY = 0x766
                    0x0770                  PMD1 = 0x770
                    0x0770                  _PMD1 = 0x770
                    0x0770                  _PMD1bits = 0x770
                    0x0772                  PMD2 = 0x772
                    0x0772                  _PMD2 = 0x772
                    0x0772                  _PMD2bits = 0x772
                    0x0774                  PMD3 = 0x774
                    0x0774                  _PMD3 = 0x774
                    0x0774                  _PMD3bits = 0x774
                    0x0022                  ACCA = 0x22
                    0x0022                  _ACCA = 0x22
                    0x0028                  ACCB = 0x28
                    0x0028                  _ACCB = 0x28
                    0x0440                  CAN1 = 0x440
                    0x0440                  _CAN1 = 0x440
                    0x0540                  CAN2 = 0x540
                    0x0540                  _CAN2 = 0x540
                    0x0140                  IC1 = 0x140
                    0x0140                  _IC1 = 0x140
                    0x0144                  IC2 = 0x144
                    0x0144                  _IC2 = 0x144
                    0x0148                  IC3 = 0x148
                    0x0148                  _IC3 = 0x148
                    0x014c                  IC4 = 0x14c
                    0x014c                  _IC4 = 0x14c
                    0x0150                  IC5 = 0x150
                    0x0150                  _IC5 = 0x150
                    0x0154                  IC6 = 0x154
                    0x0154                  _IC6 = 0x154
                    0x0158                  IC7 = 0x158
                    0x0158                  _IC7 = 0x158
                    0x015c                  IC8 = 0x15c
                    0x015c                  _IC8 = 0x15c
                    0x0180                  OC1 = 0x180
                    0x0180                  _OC1 = 0x180
                    0x0186                  OC2 = 0x186
                    0x0186                  _OC2 = 0x186
                    0x018c                  OC3 = 0x18c
                    0x018c                  _OC3 = 0x18c
                    0x0192                  OC4 = 0x192
                    0x0192                  _OC4 = 0x192
                    0x0198                  OC5 = 0x198
                    0x0198                  _OC5 = 0x198
                    0x019e                  OC6 = 0x19e
                    0x019e                  _OC6 = 0x19e
                    0x01a4                  OC7 = 0x1a4
                    0x01a4                  _OC7 = 0x1a4
                    0x01aa                  OC8 = 0x1aa
                    0x01aa                  _OC8 = 0x1aa
                    0x0240                  SPI1 = 0x240
                    0x0240                  _SPI1 = 0x240
                    0x0260                  SPI2 = 0x260
                    0x0260                  _SPI2 = 0x260
                    0x0220                  UART1 = 0x220
                    0x0220                  _UART1 = 0x220
                    0x0230                  UART2 = 0x230
                    0x0230                  _UART2 = 0x230
START GROUP
LOAD c:/program files/microchip/xc16/v2.10/bin/bin/../../lib\libc99-pic30-elf.a
LOAD c:/program files/microchip/xc16/v2.10/bin/bin/../../lib\libm-elf.a
LOAD c:/program files/microchip/xc16/v2.10/bin/bin/../../lib\libc99-elf.a
END GROUP
OUTPUT(dist/default/debug/inicio_v2_.X.debug.elf elf32-pic30)
LOAD /CW/_FGS
LOAD /CW/_FSSp!
LOAD /CW/_FBS@
LOAD jump_table
LOAD default_isr
LOAD data_init

.debug_pubtypes
                  0x000530        0x81b
 .debug_pubtypes
                  0x000530        0x193 build/default/debug/configuraciones.o
 .debug_pubtypes
                  0x0006c3        0x111 build/default/debug/main.o
 .debug_pubtypes
                  0x0007d4        0x106 build/default/debug/rutinas_genericas.o
 .debug_pubtypes
                  0x0008da         0x95 build/default/debug/timer.o
 .debug_pubtypes
                  0x00096f         0xdf build/default/debug/i2cEmem.o
 .debug_pubtypes
                  0x000a4e         0x12 build/default/debug/ctrl_param.o
 .debug_pubtypes
                  0x000a60         0x3c build/default/debug/recepcion_serie.o
 .debug_pubtypes
                  0x000a9c         0x12 build/default/debug/parametrizacion.o
 .debug_pubtypes
                  0x000aae         0x59 build/default/debug/pulso_watch.o
 .debug_pubtypes
                  0x000b07         0x59 build/default/debug/APQ.o
 .debug_pubtypes
                  0x000b60         0x3e build/default/debug/manual.o
 .debug_pubtypes
                  0x000b9e         0x5b build/default/debug/quemador.o
 .debug_pubtypes
                  0x000bf9         0x97 build/default/debug/molino.o
 .debug_pubtypes
                  0x000c90         0x5b build/default/debug/precalentador.o
 .debug_pubtypes
                  0x000ceb         0x12 build/default/debug/generar_palabra_A.o
 .debug_pubtypes
                  0x000cfd         0x3c build/default/debug/sonidosAlarma.o
 .debug_pubtypes
                  0x000d39         0x12 build/default/debug/tiempo_Quemador.o

__c30_signature
                  0x000d4b        0x306
 __c30_signature
                  0x000d4b          0x6 build/default/debug/configuraciones.o
 __c30_signature
                  0x000d51          0x6 build/default/debug/main.o
 __c30_signature
                  0x000d57          0x6 build/default/debug/Memoria.o
 __c30_signature
                  0x000d5d          0x6 build/default/debug/rutinas_genericas.o
 __c30_signature
                  0x000d63          0x6 build/default/debug/timer.o
 __c30_signature
                  0x000d69          0x6 build/default/debug/i2cEmem.o
 __c30_signature
                  0x000d6f          0x6 build/default/debug/ctrl_param.o
 __c30_signature
                  0x000d75          0x6 build/default/debug/recepcion_serie.o
 __c30_signature
                  0x000d7b          0x6 build/default/debug/parametrizacion.o
 __c30_signature
                  0x000d81          0x6 build/default/debug/pulso_watch.o
 __c30_signature
                  0x000d87          0x6 build/default/debug/APQ.o
 __c30_signature
                  0x000d8d          0x6 build/default/debug/automatico.o
 __c30_signature
                  0x000d93          0x6 build/default/debug/manual.o
 __c30_signature
                  0x000d99          0x6 build/default/debug/quemador.o
 __c30_signature
                  0x000d9f          0x6 build/default/debug/molino.o
 __c30_signature
                  0x000da5          0x6 build/default/debug/precalentador.o
 __c30_signature
                  0x000dab          0x6 build/default/debug/generar_palabra_A.o
 __c30_signature
                  0x000db1          0x6 build/default/debug/sonidosAlarma.o
 __c30_signature
                  0x000db7          0x6 build/default/debug/tiempo_Quemador.o
 __c30_signature
                  0x000dbd          0x6 c:/program files/microchip/xc16/v2.10/bin/bin/../../lib/dsPIC33F\libp33FJ256MC710-elf.a(DataRdyUART1.o)
 __c30_signature
                  0x000dc3          0x6 c:/program files/microchip/xc16/v2.10/bin/bin/../../lib/dsPIC33F\libp33FJ256MC710-elf.a(ReadUART1.o)
 __c30_signature
                  0x000dc9          0x6 c:/program files/microchip/xc16/v2.10/bin/bin/../../lib\libc99-pic30-elf.a(crt0_standard.o)
 __c30_signature
                  0x000dcf          0x6 c:/program files/microchip/xc16/v2.10/bin/bin/../../lib\libc99-pic30-elf.a(data_init_standard.o)
 __c30_signature
                  0x000dd5          0x6 c:/program files/microchip/xc16/v2.10/bin/bin/../../lib\libc99-pic30-elf.a(delay32.Meo)
 __c30_signature
                  0x000ddb          0x6 c:/program files/microchip/xc16/v2.10/bin/bin/../../lib\libc99-pic30-elf.a(feqltle.XX_o)
 __c30_signature
                  0x000de1          0x6 c:/program files/microchip/xc16/v2.10/bin/bin/../../lib\libc99-pic30-elf.a(fgtge.XX_o)
 __c30_signature
                  0x000de7          0x6 c:/program files/microchip/xc16/v2.10/bin/bin/../../lib\libc99-pic30-elf.a(fixsfsi.XX_o)
 __c30_signature
                  0x000ded          0x6 c:/program files/microchip/xc16/v2.10/bin/bin/../../lib\libc99-pic30-elf.a(fixunssfsi.XX_o)
 __c30_signature
                  0x000df3          0x6 c:/program files/microchip/xc16/v2.10/bin/bin/../../lib\libc99-pic30-elf.a(floatsisf.XX_o)
 __c30_signature
                  0x000df9          0x6 c:/program files/microchip/xc16/v2.10/bin/bin/../../lib\libc99-pic30-elf.a(floatunsisf.XX_o)
 __c30_signature
                  0x000dff          0x6 c:/program files/microchip/xc16/v2.10/bin/bin/../../lib\libc99-pic30-elf.a(funpack.XX_o)
 __c30_signature
                  0x000e05          0x6 c:/program files/microchip/xc16/v2.10/bin/bin/../../lib\libc99-pic30-elf.a(errno.XX_o)
 __c30_signature
                  0x000e0b          0x6 c:/program files/microchip/xc16/v2.10/bin/bin/../../lib\libc99-pic30-elf.a(fcompare.XX_o)
 __c30_signature
                  0x000e11          0x6 c:/program files/microchip/xc16/v2.10/bin/bin/../../lib\libc99-pic30-elf.a(floatdisf.XX_o)
 __c30_signature
                  0x000e17          0x6 c:/program files/microchip/xc16/v2.10/bin/bin/../../lib\libc99-pic30-elf.a(floatundisf.XX_o)
 __c30_signature
                  0x000e1d          0x6 c:/program files/microchip/xc16/v2.10/bin/bin/../../lib\libc99-pic30-elf.a(fpack.XX_o)
 __c30_signature
                  0x000e23          0x6 c:/program files/microchip/xc16/v2.10/bin/bin/../../lib\libc99-pic30-elf.a(funpack2.XX_o)
 __c30_signature
                  0x000e29          0x6 c:/program files/microchip/xc16/v2.10/bin/bin/../../lib\libc99-elf.a(__sio_printf_doux.XX_o)
 __c30_signature
                  0x000e2f          0x6 c:/program files/microchip/xc16/v2.10/bin/bin/../../lib\libc99-elf.a(__sio_sprintf_doux.XX_o)
 __c30_signature
                  0x000e35          0x6 c:/program files/microchip/xc16/v2.10/bin/bin/../../lib\libc99-elf.a(__sio_sscanf_doux.XX_o)
 __c30_signature
                  0x000e3b          0x6 c:/program files/microchip/xc16/v2.10/bin/bin/../../lib\libc99-elf.a(puts.XX_o)
 __c30_signature
                  0x000e41          0x6 c:/program files/microchip/xc16/v2.10/bin/bin/../../lib\libc99-elf.a(stdout.XX_o)
 __c30_signature
                  0x000e47          0x6 c:/program files/microchip/xc16/v2.10/bin/bin/../../lib\libc99-elf.a(strncmp.XX_o)
 __c30_signature
                  0x000e4d          0x6 c:/program files/microchip/xc16/v2.10/bin/bin/../../lib\libc99-elf.a(__fmt_d.XX_o)
 __c30_signature
                  0x000e53          0x6 c:/program files/microchip/xc16/v2.10/bin/bin/../../lib\libc99-elf.a(__fmt_o.XX_o)
 __c30_signature
                  0x000e59          0x6 c:/program files/microchip/xc16/v2.10/bin/bin/../../lib\libc99-elf.a(__fmt_s.XX_o)
 __c30_signature
                  0x000e5f          0x6 c:/program files/microchip/xc16/v2.10/bin/bin/../../lib\libc99-elf.a(__fmt_u.XX_o)
 __c30_signature
                  0x000e65          0x6 c:/program files/microchip/xc16/v2.10/bin/bin/../../lib\libc99-elf.a(__fmt_x.XX_o)
 __c30_signature
                  0x000e6b          0x6 c:/program files/microchip/xc16/v2.10/bin/bin/../../lib\libc99-elf.a(__int_vfprintf.XX_o)
 __c30_signature
                  0x000e71          0x6 c:/program files/microchip/xc16/v2.10/bin/bin/../../lib\libc99-elf.a(__int_vsprintf.XX_o)
 __c30_signature
                  0x000e77          0x6 c:/program files/microchip/xc16/v2.10/bin/bin/../../lib\libc99-elf.a(__int_vsscanf.XX_o)
 __c30_signature
                  0x000e7d          0x6 c:/program files/microchip/xc16/v2.10/bin/bin/../../lib\libc99-elf.a(__io_init_needed.XX_o)
 __c30_signature
                  0x000e83          0x6 c:/program files/microchip/xc16/v2.10/bin/bin/../../lib\libc99-elf.a(__out.XX_o)
 __c30_signature
                  0x000e89          0x6 c:/program files/microchip/xc16/v2.10/bin/bin/../../lib\libc99-elf.a(__pop_int.XX_o)
 __c30_signature
                  0x000e8f          0x6 c:/program files/microchip/xc16/v2.10/bin/bin/../../lib\libc99-elf.a(__pop_ptr.XX_o)
 __c30_signature
                  0x000e95          0x6 c:/program files/microchip/xc16/v2.10/bin/bin/../../lib\libc99-elf.a(__printf_core.XX_o)
 __c30_signature
                  0x000e9b          0x6 c:/program files/microchip/xc16/v2.10/bin/bin/../../lib\libc99-elf.a(__scan_d.XX_o)
 __c30_signature
                  0x000ea1          0x6 c:/program files/microchip/xc16/v2.10/bin/bin/../../lib\libc99-elf.a(__scan_i.XX_o)
 __c30_signature
                  0x000ea7          0x6 c:/program files/microchip/xc16/v2.10/bin/bin/../../lib\libc99-elf.a(__scan_o.XX_o)
 __c30_signature
                  0x000ead          0x6 c:/program files/microchip/xc16/v2.10/bin/bin/../../lib\libc99-elf.a(__scan_s.XX_o)
 __c30_signature
                  0x000eb3          0x6 c:/program files/microchip/xc16/v2.10/bin/bin/../../lib\libc99-elf.a(__scan_u.XX_o)
 __c30_signature
                  0x000eb9          0x6 c:/program files/microchip/xc16/v2.10/bin/bin/../../lib\libc99-elf.a(__scan_x.XX_o)
 __c30_signature
                  0x000ebf          0x6 c:/program files/microchip/xc16/v2.10/bin/bin/../../lib\libc99-elf.a(__scanf_core.XX_o)
 __c30_signature
                  0x000ec5          0x6 c:/program files/microchip/xc16/v2.10/bin/bin/../../lib\libc99-elf.a(__stdio_close.XX_o)
 __c30_signature
                  0x000ecb          0x6 c:/program files/microchip/xc16/v2.10/bin/bin/../../lib\libc99-elf.a(__string_read.XX_o)
 __c30_signature
                  0x000ed1          0x6 c:/program files/microchip/xc16/v2.10/bin/bin/../../lib\libc99-elf.a(atoi.XX_o)
 __c30_signature
                  0x000ed7          0x6 c:/program files/microchip/xc16/v2.10/bin/bin/../../lib\libc99-elf.a(fputs.XX_o)
 __c30_signature
                  0x000edd          0x6 c:/program files/microchip/xc16/v2.10/bin/bin/../../lib\libc99-elf.a(fwrite.XX_o)
 __c30_signature
                  0x000ee3          0x6 c:/program files/microchip/xc16/v2.10/bin/bin/../../lib\libc99-elf.a(isxdigit.XX_o)
 __c30_signature
                  0x000ee9          0x6 c:/program files/microchip/xc16/v2.10/bin/bin/../../lib\libc99-elf.a(lseek.XX_o)
 __c30_signature
                  0x000eef          0x6 c:/program files/microchip/xc16/v2.10/bin/bin/../../lib\libc99-elf.a(memchr.XX_o)
 __c30_signature
                  0x000ef5          0x6 c:/program files/microchip/xc16/v2.10/bin/bin/../../lib\libc99-elf.a(memcpy.XX_o)
 __c30_signature
                  0x000efb          0x6 c:/program files/microchip/xc16/v2.10/bin/bin/../../lib\libc99-elf.a(memset.XX_o)
 __c30_signature
                  0x000f01          0x6 c:/program files/microchip/xc16/v2.10/bin/bin/../../lib\libc99-elf.a(putc.XX_o)
 __c30_signature
                  0x000f07          0x6 c:/program files/microchip/xc16/v2.10/bin/bin/../../lib\libc99-elf.a(shgetc.XX_o)
 __c30_signature
                  0x000f0d          0x6 c:/program files/microchip/xc16/v2.10/bin/bin/../../lib\libc99-elf.a(strlen.XX_o)
 __c30_signature
                  0x000f13          0x6 c:/program files/microchip/xc16/v2.10/bin/bin/../../lib\libc99-elf.a(strtol.XX_o)
 __c30_signature
                  0x000f19          0x6 c:/program files/microchip/xc16/v2.10/bin/bin/../../lib\libc99-elf.a(syscall_ret.XX_o)
 __c30_signature
                  0x000f1f          0x6 c:/program files/microchip/xc16/v2.10/bin/bin/../../lib\libc99-elf.a(tolower.XX_o)
 __c30_signature
                  0x000f25          0x6 c:/program files/microchip/xc16/v2.10/bin/bin/../../lib\libc99-elf.a(toupper.XX_o)
 __c30_signature
                  0x000f2b          0x6 c:/program files/microchip/xc16/v2.10/bin/bin/../../lib\libc99-elf.a(__errno_location.XX_o)
 __c30_signature
                  0x000f31          0x6 c:/program files/microchip/xc16/v2.10/bin/bin/../../lib\libc99-elf.a(__init_stdio.XX_o)
 __c30_signature
                  0x000f37          0x6 c:/program files/microchip/xc16/v2.10/bin/bin/../../lib\libc99-elf.a(__int_vfscanf.XX_o)
 __c30_signature
                  0x000f3d          0x6 c:/program files/microchip/xc16/v2.10/bin/bin/../../lib\libc99-elf.a(__int_vsnprintf.XX_o)
 __c30_signature
                  0x000f43          0x6 c:/program files/microchip/xc16/v2.10/bin/bin/../../lib\libc99-elf.a(__io_file_needed.XX_o)
 __c30_signature
                  0x000f49          0x6 c:/program files/microchip/xc16/v2.10/bin/bin/../../lib\libc99-elf.a(__io_rw_needed.XX_o)
 __c30_signature
                  0x000f4f          0x6 c:/program files/microchip/xc16/v2.10/bin/bin/../../lib\libc99-elf.a(__pop_float.XX_o)
 __c30_signature
                  0x000f55          0x6 c:/program files/microchip/xc16/v2.10/bin/bin/../../lib\libc99-elf.a(__push_float.XX_o)
 __c30_signature
                  0x000f5b          0x6 c:/program files/microchip/xc16/v2.10/bin/bin/../../lib\libc99-elf.a(__push_int.XX_o)
 __c30_signature
                  0x000f61          0x6 c:/program files/microchip/xc16/v2.10/bin/bin/../../lib\libc99-elf.a(__read_int.XX_o)
 __c30_signature
                  0x000f67          0x6 c:/program files/microchip/xc16/v2.10/bin/bin/../../lib\libc99-elf.a(__towrite_rw.XX_o)
 __c30_signature
                  0x000f6d          0x6 c:/program files/microchip/xc16/v2.10/bin/bin/../../lib\libc99-elf.a(__uflow.XX_o)
 __c30_signature
                  0x000f73          0x6 c:/program files/microchip/xc16/v2.10/bin/bin/../../lib\libc99-elf.a(intscan.XX_o)
 __c30_signature
                  0x000f79          0x6 c:/program files/microchip/xc16/v2.10/bin/bin/../../lib\libc99-elf.a(__fopen_rw.XX_o)
 __c30_signature
                  0x000f7f          0x6 c:/program files/microchip/xc16/v2.10/bin/bin/../../lib\libc99-elf.a(__ftello_rw.XX_o)
 __c30_signature
                  0x000f85          0x6 c:/program files/microchip/xc16/v2.10/bin/bin/../../lib\libc99-elf.a(__io_buf_needed.XX_o)
 __c30_signature
                  0x000f8b          0x6 c:/program files/microchip/xc16/v2.10/bin/bin/../../lib\libc99-elf.a(__io_std_needed.XX_o)
 __c30_signature
                  0x000f91          0x6 c:/program files/microchip/xc16/v2.10/bin/bin/../../lib\libc99-elf.a(__putc.XX_o)
 __c30_signature
                  0x000f97          0x6 c:/program files/microchip/xc16/v2.10/bin/bin/../../lib\libc99-elf.a(__stderr.XX_o)
 __c30_signature
                  0x000f9d          0x6 c:/program files/microchip/xc16/v2.10/bin/bin/../../lib\libc99-elf.a(__stdio_exit.XX_o)
 __c30_signature
                  0x000fa3          0x6 c:/program files/microchip/xc16/v2.10/bin/bin/../../lib\libc99-elf.a(__stdio_read.XX_o)
 __c30_signature
                  0x000fa9          0x6 c:/program files/microchip/xc16/v2.10/bin/bin/../../lib\libc99-elf.a(__stdio_seek.XX_o)
 __c30_signature
                  0x000faf          0x6 c:/program files/microchip/xc16/v2.10/bin/bin/../../lib\libc99-elf.a(__stdout.XX_o)
 __c30_signature
                  0x000fb5          0x6 c:/program files/microchip/xc16/v2.10/bin/bin/../../lib\libc99-elf.a(__toread.XX_o)
 __c30_signature
                  0x000fbb          0x6 c:/program files/microchip/xc16/v2.10/bin/bin/../../lib\libc99-elf.a(lite_malloc.XX_o)
 __c30_signature
                  0x000fc1          0x6 c:/program files/microchip/xc16/v2.10/bin/bin/../../lib\libc99-elf.a(readv.XX_o)
 __c30_signature
                  0x000fc7          0x6 c:/program files/microchip/xc16/v2.10/bin/bin/../../lib\libc99-elf.a(__fclose.XX_o)
 __c30_signature
                  0x000fcd          0x6 c:/program files/microchip/xc16/v2.10/bin/bin/../../lib\libc99-elf.a(__fopen.XX_o)
 __c30_signature
                  0x000fd3          0x6 c:/program files/microchip/xc16/v2.10/bin/bin/../../lib\libc99-elf.a(__fseeko.XX_o)
 __c30_signature
                  0x000fd9          0x6 c:/program files/microchip/xc16/v2.10/bin/bin/../../lib\libc99-elf.a(__ftello.XX_o)
 __c30_signature
                  0x000fdf          0x6 c:/program files/microchip/xc16/v2.10/bin/bin/../../lib\libc99-elf.a(__fwrite.XX_o)
 __c30_signature
                  0x000fe5          0x6 c:/program files/microchip/xc16/v2.10/bin/bin/../../lib\libc99-elf.a(__overflow.XX_o)
 __c30_signature
                  0x000feb          0x6 c:/program files/microchip/xc16/v2.10/bin/bin/../../lib\libc99-elf.a(__towrite.XX_o)
 __c30_signature
                  0x000ff1          0x6 c:/program files/microchip/xc16/v2.10/bin/bin/../../lib\libc99-elf.a(expand_heap.XX_o)
 __c30_signature
                  0x000ff7          0x6 c:/program files/microchip/xc16/v2.10/bin/bin/../../lib\libc99-pic30-elf.a(read.Meo)
 __c30_signature
                  0x000ffd          0x6 c:/program files/microchip/xc16/v2.10/bin/bin/../../lib\libc99-pic30-elf.a(close.Meo)
 __c30_signature
                  0x001003          0x6 c:/program files/microchip/xc16/v2.10/bin/bin/../../lib\libc99-pic30-elf.a(write.Meo)
 __c30_signature
                  0x001009          0x6 c:/program files/microchip/xc16/v2.10/bin/bin/../../lib\libc99-pic30-elf.a(sbrk.Meo)
 __c30_signature
                  0x00100f          0x6 c:/program files/microchip/xc16/v2.10/bin/bin/../../lib\libc99-pic30-elf.a(c30_uart.Meo)
 __c30_signature
                  0x001015          0x6 c:/program files/microchip/xc16/v2.10/bin/bin/../../lib\libc99-pic30-elf.a(extendsfdf.XX_o)
 __c30_signature
                  0x00101b          0x6 c:/program files/microchip/xc16/v2.10/bin/bin/../../lib\libc99-pic30-elf.a(truncdfsf.XX_o)
 __c30_signature
                  0x001021          0x6 c:/program files/microchip/xc16/v2.10/bin/bin/../../lib\libc99-pic30-elf.a(mulsi3.XX_o)
 __c30_signature
                  0x001027          0x6 c:/program files/microchip/xc16/v2.10/bin/bin/../../lib\libc99-pic30-elf.a(divmoddi3.XX_o)
 __c30_signature
                  0x00102d          0x6 c:/program files/microchip/xc16/v2.10/bin/bin/../../lib\libc99-pic30-elf.a(muldi3.XX_o)
 __c30_signature
                  0x001033          0x6 c:/program files/microchip/xc16/v2.10/bin/bin/../../lib\libc99-pic30-elf.a(brk.Meo)
 __c30_signature
                  0x001039          0x6 c:/program files/microchip/xc16/v2.10/bin/bin/../../lib\libc99-pic30-elf.a(dunpack.XX_o)
 __c30_signature
                  0x00103f          0x6 c:/program files/microchip/xc16/v2.10/bin/bin/../../lib\libc99-pic30-elf.a(dunpack2.XX_o)
 __c30_signature
                  0x001045          0x6 c:/program files/microchip/xc16/v2.10/bin/bin/../../lib\libc99-pic30-elf.a(umuldi3.XX_o)
 __c30_signature
                  0x00104b          0x6 c:/program files/microchip/xc16/v2.10/bin/bin/../../lib\libc99-pic30-elf.a(dpropagateNaN.XX_o)

__xc_reference_data

_0000000005FE1A0067127187
                    0x7f7e         0x82
 _0000000005FE1A0067127187
                    0x7f7e         0x82 build/default/debug/main.o
                    0x7f7e                  _BufferA

.nbss               0x0850        0x11e
 .nbss              0x0850        0x11e build/default/debug/main.o
                    0x0850                  _ND
                    0x0852                  _PIR
                    0x0854                  _Qgasoil
                    0x0856                  _Qmot
                    0x0858                  _RH
                    0x085a                  _TCF
                    0x085c                  _tCIC
                    0x085e                  _TD
                    0x0860                  _TIB
                    0x0862                  _TIP
                    0x0864                  _TIR
                    0x0866                  _TIR1
                    0x0868                  _TIR2
                    0x086a                  _Pservos
                    0x086c                  _ApQ
                    0x086e                  _DOK
                    0x086f                  _REhorno
                    0x0870                  _LlaQuemador
                    0x0871                  _AlarV
                    0x0872                  _REbasc
                    0x0873                  _REpc
                    0x0874                  _Ctl_Llama
                    0x0875                  _Cesto_0
                    0x0876                  _Cesto_1
                    0x0877                  _Molino_march
                    0x0878                  _BombaM_march
                    0x0879                  _EN_ESPERA
                    0x087a                  _MODO_MANUAL
                    0x087b                  _EN_CICLO
                    0x087c                  _AlarR
                    0x087e                  _DA
                    0x0880                  _Alarma_verde
                    0x0881                  _Alarma_roja
                    0x0882                  _QMAR
                    0x0884                  _Err
                    0x0886                  _TIRN
                    0x0888                  _DB
                    0x088a                  _ApSApSV
                    0x088c                  _ET
                    0x088e                  _tETAP
                    0x0890                  _FINAL
                    0x0892                  _RES1
                    0x0894                  _RES2
                    0x0896                  _RES3
                    0x0898                  _SK
                    0x089a                  _T
                    0x089c                  _dR
                    0x089e                  _NDB
                    0x08a0                  _NDMAX
                    0x08a2                  _NDMIN
                    0x08a4                  _NEQ
                    0x08a6                  _PEMP
                    0x08a8                  _PETARA
                    0x08aa                  _PIRMAX
                    0x08ac                  _PIRNOM
                    0x08ae                  _STALARM
                    0x08b0                  _TCCORT
                    0x08b2                  _TCFAlar
                    0x08b4                  _TDMax
                    0x08b6                  _tESTR
                    0x08b8                  _TEXT
                    0x08ba                  _TIRBP
                    0x08bc                  _TIRC1
                    0x08be                  _TIRC2
                    0x08c0                  _TIRC3
                    0x08c2                  _TIRNA
                    0x08c4                  _TPCMAX
                    0x08c6                  _tPIR1
                    0x08c8                  _tPIR2
                    0x08ca                  _tPIR3
                    0x08cc                  _TMAN
                    0x08ce                  _TPIRO1
                    0x08d0                  _TPIRO2
                    0x08d2                  _TPIRO3
                    0x08d4                  _TVUELC
                    0x08d6                  _Esc500
                    0x08d8                  _Esc800
                    0x08da                  _Esc060
                    0x08dc                  _EscMPX
                    0x08de                  _EscNIV
                    0x08e0                  _dPIR
                    0x08e2                  _ALARLAV
                    0x08e4                  _ALARINM
                    0x08e6                  _TCCORT_MUL2
                    0x08e8                  _TIRA
                    0x08ec                  _TIRIBP
                    0x08ee                  _ReLCC
                    0x08f2                  _NCB
                    0x08f6                  _NCMAX
                    0x08fa                  _NCMIN
                    0x08fe                  _CHEK_A
                    0x0900                  _CHEK_P
                    0x0902                  _CHEK_C
                    0x0904                  _CHEK_PAR
                    0x0906                  _RX_CHEKP
                    0x0908                  _RX_CHEKA
                    0x090a                  _RX_CHEKC
                    0x090c                  _VF_actual
                    0x0910                  _VF_anterior
                    0x0914                  _operando_a
                    0x0918                  _operando_b
                    0x091c                  _TP1S
                    0x091e                  _TP10S
                    0x0920                  _ticks
                    0x0922                  _seg_acum
                    0x0924                  _min
                    0x0926                  _SOFTK_A
                    0x0928                  _SOFTK_N
                    0x092a                  _SOFTK_N1
                    0x092c                  _YAC
                    0x092d                  _PASADA
                    0x092e                  _Punto
                    0x0930                  _SK_C
                    0x0932                  _SALIR_MANUAL
                    0x0934                  _MODO
                    0x0936                  _num
                    0x0938                  _BANDERA_HELPQTCF
                    0x0939                  _BANDERA_HELPQNDmax
                    0x093a                  _BANDERA_HELPQNDmin
                    0x093b                  _BANDERA_HELPQ
                    0x093c                  _BANDERA_ALARMAQENC
                    0x093d                  _BANDERA_ALARQUEM
                    0x093e                  _BANDERA_noquema
                    0x093f                  _BANDERA_quemador
                    0x0940                  _aviso_Qarr
                    0x0942                  _SK_Q
                    0x0944                  _APQ
                    0x0945                  _apagar_Q
                    0x0946                  _BANDERA_ACTUALIZAQ
                    0x0947                  _BANDERA_RETROCERQ
                    0x0948                  _tiempo_ENCQUEMA
                    0x094a                  _tiempo_segQ
                    0x094c                  _BANDERA_HELPM
                    0x094d                  _BANDERA_ALARMOL
                    0x094e                  _BANDERA_nomolino
                    0x094f                  _BANDERA_molino
                    0x0950                  _aviso_Larr
                    0x0952                  _SK_M
                    0x0954                  _APM
                    0x0955                  _apagar_M
                    0x0956                  _BANDERA_ACTUALIZAM
                    0x0957                  _BANDERA_RETROCERM
                    0x0958                  _BANDERA_lluviamarch
                    0x0959                  _BANDERA_HELPP
                    0x095a                  _BANDERA_ALARPRE
                    0x095b                  _BANDERA_nopre
                    0x095c                  _BANDERA_precalentador
                    0x095d                  _aviso_Parr
                    0x095e                  _SK_PRE
                    0x0960                  _APP
                    0x0961                  _apagar_P
                    0x0962                  _BANDERA_ACTUALIZAP
                    0x0963                  _BANDERA_RETROCERP
                    0x0964                  _ESTADO_0
                    0x0966                  _RETORNAR
                    0x0967                  _tabla_sk
                    0x0968                  _EnCICLO
                    0x096a                  _Ppal
                    0x096c                  _signal_emergencia

.ndata              0x096e         0x14
 .ndata             0x096e         0x14 build/default/debug/main.o
                    0x096e                  _version
                    0x0972                  _NP1K
                    0x0974                  _NP2S
                    0x0976                  _NP4K
                    0x0978                  _NP5K
                    0x097a                  _NP10K
                    0x097c                  _seg
                    0x097e                  _ticks_Q
                    0x0980                  _ESTADO_1

.nbss               0x0982         0x12
 .nbss              0x0982          0x8 build/default/debug/i2cEmem.o
                    0x0982                  _jDone
 .nbss              0x098a          0x4 build/default/debug/molino.o
                    0x098a                  _timeout
                    0x098c                  _iloop
 .nbss              0x098e          0x2 build/default/debug/rutinas_genericas.o
 .nbss              0x0990          0x2 build/default/debug/recepcion_serie.o
 .nbss              0x0992          0x2 c:/program files/microchip/xc16/v2.10/bin/bin/../../lib\libc99-pic30-elf.a(errno.XX_o)
                    0x0992                  _errno

.bss                0x0994        0x1d8
 .bss               0x0994        0x1d8 build/default/debug/main.o
                    0x0994                  _dato_Rx
                    0x0a2a                  _aux_dma_tx
                    0x0a6c                  _Eparam
                    0x0aa8                  _E1param
                    0x0ae4                  _cons_param
                    0x0b20                  _cons_param1
                    0x0b5c                  _V

.data               0x0b6c        0x1e2
 .data              0x0b6c        0x10a c:/program files/microchip/xc16/v2.10/bin/bin/../../lib\libc99-elf.a(intscan.XX_o)
 .data              0x0c76         0x42 c:/program files/microchip/xc16/v2.10/bin/bin/../../lib\libc99-elf.a(stdout.XX_o)
                    0x0c76                  __stdout
                    0x0c78                  ___stdout_used
 .data              0x0cb8         0x3c c:/program files/microchip/xc16/v2.10/bin/bin/../../lib\libc99-elf.a(__stderr.XX_o)
 .data              0x0cf4         0x3c c:/program files/microchip/xc16/v2.10/bin/bin/../../lib\libc99-elf.a(__stdout.XX_o)
 .data              0x0d30         0x1e c:/program files/microchip/xc16/v2.10/bin/bin/../../lib\libc99-elf.a(__printf_core.XX_o)

.bss                0x0d4e          0x8
 .bss               0x0d4e          0x4 c:/program files/microchip/xc16/v2.10/bin/bin/../../lib\libc99-elf.a(lite_malloc.XX_o)
 .bss               0x0d52          0x2 c:/program files/microchip/xc16/v2.10/bin/bin/../../lib\libc99-elf.a(__errno_location.XX_o)
                    0x0d52                  ___errno_val
 .bss               0x0d54          0x2 c:/program files/microchip/xc16/v2.10/bin/bin/../../lib\libc99-elf.a(__stdio_exit.XX_o)
                    0x0d54                  ___stdin_used
                    0x0d54                  ___stderr_used

.data               0x0d56          0x2
 .data              0x0d56          0x2 c:/program files/microchip/xc16/v2.10/bin/bin/../../lib\libc99-pic30-elf.a(c30_uart.Meo)
                    0x0d56                  ___C30_UART

.bss                0x0d58          0x2
 .bss               0x0d58          0x2 c:/program files/microchip/xc16/v2.10/bin/bin/../../lib\libc99-pic30-elf.a(brk.Meo)
                    0x0d58                  ___curbrk

.config_JTAGEN    0xf8000e          0x2
 .config_JTAGEN
                  0xf8000e          0x2 build/default/debug/configuraciones.o

.config_PWMPIN    0xf8000c          0x2
 .config_PWMPIN
                  0xf8000c          0x2 build/default/debug/configuraciones.o

.config_FWDTEN    0xf8000a          0x2
 .config_FWDTEN
                  0xf8000a          0x2 build/default/debug/configuraciones.o

.config_FCKSM     0xf80008          0x2
 .config_FCKSM    0xf80008          0x2 build/default/debug/configuraciones.o

.config_IESO      0xf80006          0x2
 .config_IESO     0xf80006          0x2 build/default/debug/configuraciones.o

.ivt._DMA0Interrupt
                  0x00001c          0x2
 .ivt._DMA0Interrupt
                  0x00001c          0x2 build/default/debug/configuraciones.o

.ivt._T2Interrupt
                  0x000022          0x2
 .ivt._T2Interrupt
                  0x000022          0x2 build/default/debug/main.o

.ivt._MI2C1Interrupt
                  0x000036          0x2
 .ivt._MI2C1Interrupt
                  0x000036          0x2 build/default/debug/i2cEmem.o

.ivt._SI2C1Interrupt
                  0x000034          0x2
 .ivt._SI2C1Interrupt
                  0x000034          0x2 build/default/debug/i2cEmem.o

.ivt._U1RXInterrupt
                  0x00002a          0x2
 .ivt._U1RXInterrupt
                  0x00002a          0x2 build/default/debug/recepcion_serie.o

.const              0xb70c        0x23c load address 0x00370c  
 .const             0xb70c        0x128 build/default/debug/parametrizacion.o
 .const             0xb834         0xa0 build/default/debug/main.o
 .const             0xb8d4         0x56 build/default/debug/generar_palabra_A.o
 .const             0xb92a          0xa build/default/debug/quemador.o
 .const             0xb934          0xa build/default/debug/molino.o
 .const             0xb93e          0xa build/default/debug/precalentador.o

.text             0x003948       0x24ee
 .text            0x003948       0x1206 build/default/debug/main.o
                  0x003948                  _main
 .text            0x004b4e        0x4ba build/default/debug/parametrizacion.o
                  0x004b4e                  _parametros
 .text            0x005008        0x3c0 build/default/debug/molino.o
                  0x005008                  _Molino
 .text            0x0053c8        0x330 build/default/debug/rutinas_genericas.o
                  0x0053c8                  _convierteAD
                  0x005408                  _enviar_DMA
                  0x00541c                  _cargar_DMA_A
                  0x005468                  _cargar_DMA_C
                  0x0054b4                  _escribir_Eeprom
                  0x005568                  _leer_Eeprom
                  0x00560c                  _RAMPA_Dac
 .text            0x0056f8        0x2e6 build/default/debug/i2cEmem.o
                  0x0056f8                  _I2CEMEMinit
                  0x005722                  _I2CEMEMdrv
 .text            0x0059de        0x252 build/default/debug/quemador.o
                  0x0059de                  _Quemador
 .text            0x005c30        0x206 build/default/debug/precalentador.o
                  0x005c30                  _Precalentador

.dinit            0x005e36        0x1c6
 .dinit           0x005e36        0x1c6 data_init

.text             0x005ffc        0x77c
 .text            0x005ffc        0x196 build/default/debug/APQ.o
                  0x005ffc                  _Apq
 .text            0x006192        0x18a build/default/debug/sonidosAlarma.o
                  0x006192                  _sonido_1
                  0x006256                  _sonido_2
 .text            0x00631c        0x134 build/default/debug/configuraciones.o
                  0x00631c                  _configurarEntradasSalidas
                  0x00634a                  _WDT_disable
                  0x006352                  _configurarSistema
                  0x00635e                  _configurarPLL
                  0x0063ae                  _inicializaPrioridadInterrupciones
                  0x0063ec                  _inicializaADC
                  0x006406                  _inicializaUART
                  0x006432                  _inicializaDMA
 .text            0x006450        0x10a build/default/debug/ctrl_param.o
                  0x006450                  _control_param
 .text            0x00655a         0xe8 build/default/debug/generar_palabra_A.o
                  0x00655a                  _generar_A
 .text            0x006642         0x8c build/default/debug/manual.o
                  0x006642                  _Manual
 .text            0x0066ce         0x4c build/default/debug/timer.o
                  0x0066ce                  _inicializaTimer2
                  0x0066f8                  _RUN_Timer2
                  0x006702                  _STOP_Timer2
                  0x00670c                  _resetTimer2
 .text            0x00671a         0x36 build/default/debug/tiempo_Quemador.o
                  0x00671a                  _tiempo_Q
                  0x006740                  _reset_tiempoQ
 .text            0x006750         0x28 build/default/debug/pulso_watch.o
                  0x006750                  _pulso_watchdog

.init.delay32     0x006778         0x1c
 .init.delay32    0x006778         0x1c c:/program files/microchip/xc16/v2.10/bin/bin/../../lib\libc99-pic30-elf.a(delay32.Meo)
                  0x006778                  ___delay32

.text             0x006794          0x6
 .text            0x006794          0x6 build/default/debug/automatico.o
                  0x006794                  _Automatico
